ARM GAS  /tmp/ccBeNIig.s 			page 1


   1              		.cpu cortex-m0
   2              		.fpu softvfp
   3              		.eabi_attribute 20, 1
   4              		.eabi_attribute 21, 1
   5              		.eabi_attribute 23, 3
   6              		.eabi_attribute 24, 1
   7              		.eabi_attribute 25, 1
   8              		.eabi_attribute 26, 1
   9              		.eabi_attribute 30, 1
  10              		.eabi_attribute 34, 0
  11              		.eabi_attribute 18, 4
  12              		.code	16
  13              		.file	"stm32f0xx_hal_pcd.c"
  14              		.text
  15              	.Ltext0:
  16              		.cfi_sections	.debug_frame
  17              		.section	.text.HAL_PCD_MspInit,"ax",%progbits
  18              		.align	2
  19              		.weak	HAL_PCD_MspInit
  20              		.code	16
  21              		.thumb_func
  23              	HAL_PCD_MspInit:
  24              	.LFB36:
  25              		.file 1 "Drivers/STM32F0xx_HAL_Driver/Src/stm32f0xx_hal_pcd.c"
   1:Drivers/STM32F0xx_HAL_Driver/Src/stm32f0xx_hal_pcd.c **** /**
   2:Drivers/STM32F0xx_HAL_Driver/Src/stm32f0xx_hal_pcd.c ****   ******************************************************************************
   3:Drivers/STM32F0xx_HAL_Driver/Src/stm32f0xx_hal_pcd.c ****   * @file    stm32f0xx_hal_pcd.c
   4:Drivers/STM32F0xx_HAL_Driver/Src/stm32f0xx_hal_pcd.c ****   * @author  MCD Application Team
   5:Drivers/STM32F0xx_HAL_Driver/Src/stm32f0xx_hal_pcd.c ****   * @brief   PCD HAL module driver.
   6:Drivers/STM32F0xx_HAL_Driver/Src/stm32f0xx_hal_pcd.c ****   *          This file provides firmware functions to manage the following 
   7:Drivers/STM32F0xx_HAL_Driver/Src/stm32f0xx_hal_pcd.c ****   *          functionalities of the USB Peripheral Controller:
   8:Drivers/STM32F0xx_HAL_Driver/Src/stm32f0xx_hal_pcd.c ****   *           + Initialization and de-initialization functions
   9:Drivers/STM32F0xx_HAL_Driver/Src/stm32f0xx_hal_pcd.c ****   *           + IO operation functions
  10:Drivers/STM32F0xx_HAL_Driver/Src/stm32f0xx_hal_pcd.c ****   *           + Peripheral Control functions 
  11:Drivers/STM32F0xx_HAL_Driver/Src/stm32f0xx_hal_pcd.c ****   *           + Peripheral State functions
  12:Drivers/STM32F0xx_HAL_Driver/Src/stm32f0xx_hal_pcd.c ****   *         
  13:Drivers/STM32F0xx_HAL_Driver/Src/stm32f0xx_hal_pcd.c ****   @verbatim
  14:Drivers/STM32F0xx_HAL_Driver/Src/stm32f0xx_hal_pcd.c ****   ==============================================================================
  15:Drivers/STM32F0xx_HAL_Driver/Src/stm32f0xx_hal_pcd.c ****                     ##### How to use this driver #####
  16:Drivers/STM32F0xx_HAL_Driver/Src/stm32f0xx_hal_pcd.c ****   ==============================================================================
  17:Drivers/STM32F0xx_HAL_Driver/Src/stm32f0xx_hal_pcd.c ****     [..]
  18:Drivers/STM32F0xx_HAL_Driver/Src/stm32f0xx_hal_pcd.c ****       The PCD HAL driver can be used as follows:
  19:Drivers/STM32F0xx_HAL_Driver/Src/stm32f0xx_hal_pcd.c **** 
  20:Drivers/STM32F0xx_HAL_Driver/Src/stm32f0xx_hal_pcd.c ****      (#) Declare a PCD_HandleTypeDef handle structure, for example:
  21:Drivers/STM32F0xx_HAL_Driver/Src/stm32f0xx_hal_pcd.c ****          PCD_HandleTypeDef  hpcd;
  22:Drivers/STM32F0xx_HAL_Driver/Src/stm32f0xx_hal_pcd.c ****         
  23:Drivers/STM32F0xx_HAL_Driver/Src/stm32f0xx_hal_pcd.c ****      (#) Fill parameters of Init structure in HCD handle
  24:Drivers/STM32F0xx_HAL_Driver/Src/stm32f0xx_hal_pcd.c ****   
  25:Drivers/STM32F0xx_HAL_Driver/Src/stm32f0xx_hal_pcd.c ****      (#) Call HAL_PCD_Init() API to initialize the HCD peripheral (Core, Device core, ...) 
  26:Drivers/STM32F0xx_HAL_Driver/Src/stm32f0xx_hal_pcd.c **** 
  27:Drivers/STM32F0xx_HAL_Driver/Src/stm32f0xx_hal_pcd.c ****      (#) Initialize the PCD low level resources through the HAL_PCD_MspInit() API:
  28:Drivers/STM32F0xx_HAL_Driver/Src/stm32f0xx_hal_pcd.c ****          (##) Enable the PCD/USB Low Level interface clock using 
  29:Drivers/STM32F0xx_HAL_Driver/Src/stm32f0xx_hal_pcd.c ****               (+++) __HAL_RCC_USB_CLK_ENABLE);
  30:Drivers/STM32F0xx_HAL_Driver/Src/stm32f0xx_hal_pcd.c ****            
  31:Drivers/STM32F0xx_HAL_Driver/Src/stm32f0xx_hal_pcd.c ****          (##) Initialize the related GPIO clocks
  32:Drivers/STM32F0xx_HAL_Driver/Src/stm32f0xx_hal_pcd.c ****          (##) Configure PCD pin-out
  33:Drivers/STM32F0xx_HAL_Driver/Src/stm32f0xx_hal_pcd.c ****          (##) Configure PCD NVIC interrupt
ARM GAS  /tmp/ccBeNIig.s 			page 2


  34:Drivers/STM32F0xx_HAL_Driver/Src/stm32f0xx_hal_pcd.c ****     
  35:Drivers/STM32F0xx_HAL_Driver/Src/stm32f0xx_hal_pcd.c ****      (#)Associate the Upper USB device stack to the HAL PCD Driver:
  36:Drivers/STM32F0xx_HAL_Driver/Src/stm32f0xx_hal_pcd.c ****          (##) hpcd.pData = pdev;
  37:Drivers/STM32F0xx_HAL_Driver/Src/stm32f0xx_hal_pcd.c **** 
  38:Drivers/STM32F0xx_HAL_Driver/Src/stm32f0xx_hal_pcd.c ****      (#)Enable HCD transmission and reception:
  39:Drivers/STM32F0xx_HAL_Driver/Src/stm32f0xx_hal_pcd.c ****          (##) HAL_PCD_Start();
  40:Drivers/STM32F0xx_HAL_Driver/Src/stm32f0xx_hal_pcd.c **** 
  41:Drivers/STM32F0xx_HAL_Driver/Src/stm32f0xx_hal_pcd.c ****   @endverbatim
  42:Drivers/STM32F0xx_HAL_Driver/Src/stm32f0xx_hal_pcd.c ****   ******************************************************************************
  43:Drivers/STM32F0xx_HAL_Driver/Src/stm32f0xx_hal_pcd.c ****   * @attention
  44:Drivers/STM32F0xx_HAL_Driver/Src/stm32f0xx_hal_pcd.c ****   *
  45:Drivers/STM32F0xx_HAL_Driver/Src/stm32f0xx_hal_pcd.c ****   * <h2><center>&copy; COPYRIGHT(c) 2016 STMicroelectronics</center></h2>
  46:Drivers/STM32F0xx_HAL_Driver/Src/stm32f0xx_hal_pcd.c ****   *
  47:Drivers/STM32F0xx_HAL_Driver/Src/stm32f0xx_hal_pcd.c ****   * Redistribution and use in source and binary forms, with or without modification,
  48:Drivers/STM32F0xx_HAL_Driver/Src/stm32f0xx_hal_pcd.c ****   * are permitted provided that the following conditions are met:
  49:Drivers/STM32F0xx_HAL_Driver/Src/stm32f0xx_hal_pcd.c ****   *   1. Redistributions of source code must retain the above copyright notice,
  50:Drivers/STM32F0xx_HAL_Driver/Src/stm32f0xx_hal_pcd.c ****   *      this list of conditions and the following disclaimer.
  51:Drivers/STM32F0xx_HAL_Driver/Src/stm32f0xx_hal_pcd.c ****   *   2. Redistributions in binary form must reproduce the above copyright notice,
  52:Drivers/STM32F0xx_HAL_Driver/Src/stm32f0xx_hal_pcd.c ****   *      this list of conditions and the following disclaimer in the documentation
  53:Drivers/STM32F0xx_HAL_Driver/Src/stm32f0xx_hal_pcd.c ****   *      and/or other materials provided with the distribution.
  54:Drivers/STM32F0xx_HAL_Driver/Src/stm32f0xx_hal_pcd.c ****   *   3. Neither the name of STMicroelectronics nor the names of its contributors
  55:Drivers/STM32F0xx_HAL_Driver/Src/stm32f0xx_hal_pcd.c ****   *      may be used to endorse or promote products derived from this software
  56:Drivers/STM32F0xx_HAL_Driver/Src/stm32f0xx_hal_pcd.c ****   *      without specific prior written permission.
  57:Drivers/STM32F0xx_HAL_Driver/Src/stm32f0xx_hal_pcd.c ****   *
  58:Drivers/STM32F0xx_HAL_Driver/Src/stm32f0xx_hal_pcd.c ****   * THIS SOFTWARE IS PROVIDED BY THE COPYRIGHT HOLDERS AND CONTRIBUTORS "AS IS"
  59:Drivers/STM32F0xx_HAL_Driver/Src/stm32f0xx_hal_pcd.c ****   * AND ANY EXPRESS OR IMPLIED WARRANTIES, INCLUDING, BUT NOT LIMITED TO, THE
  60:Drivers/STM32F0xx_HAL_Driver/Src/stm32f0xx_hal_pcd.c ****   * IMPLIED WARRANTIES OF MERCHANTABILITY AND FITNESS FOR A PARTICULAR PURPOSE ARE
  61:Drivers/STM32F0xx_HAL_Driver/Src/stm32f0xx_hal_pcd.c ****   * DISCLAIMED. IN NO EVENT SHALL THE COPYRIGHT HOLDER OR CONTRIBUTORS BE LIABLE
  62:Drivers/STM32F0xx_HAL_Driver/Src/stm32f0xx_hal_pcd.c ****   * FOR ANY DIRECT, INDIRECT, INCIDENTAL, SPECIAL, EXEMPLARY, OR CONSEQUENTIAL
  63:Drivers/STM32F0xx_HAL_Driver/Src/stm32f0xx_hal_pcd.c ****   * DAMAGES (INCLUDING, BUT NOT LIMITED TO, PROCUREMENT OF SUBSTITUTE GOODS OR
  64:Drivers/STM32F0xx_HAL_Driver/Src/stm32f0xx_hal_pcd.c ****   * SERVICES; LOSS OF USE, DATA, OR PROFITS; OR BUSINESS INTERRUPTION) HOWEVER
  65:Drivers/STM32F0xx_HAL_Driver/Src/stm32f0xx_hal_pcd.c ****   * CAUSED AND ON ANY THEORY OF LIABILITY, WHETHER IN CONTRACT, STRICT LIABILITY,
  66:Drivers/STM32F0xx_HAL_Driver/Src/stm32f0xx_hal_pcd.c ****   * OR TORT (INCLUDING NEGLIGENCE OR OTHERWISE) ARISING IN ANY WAY OUT OF THE USE
  67:Drivers/STM32F0xx_HAL_Driver/Src/stm32f0xx_hal_pcd.c ****   * OF THIS SOFTWARE, EVEN IF ADVISED OF THE POSSIBILITY OF SUCH DAMAGE.
  68:Drivers/STM32F0xx_HAL_Driver/Src/stm32f0xx_hal_pcd.c ****   *
  69:Drivers/STM32F0xx_HAL_Driver/Src/stm32f0xx_hal_pcd.c ****   ******************************************************************************
  70:Drivers/STM32F0xx_HAL_Driver/Src/stm32f0xx_hal_pcd.c ****   */
  71:Drivers/STM32F0xx_HAL_Driver/Src/stm32f0xx_hal_pcd.c **** 
  72:Drivers/STM32F0xx_HAL_Driver/Src/stm32f0xx_hal_pcd.c **** /* Includes ------------------------------------------------------------------*/
  73:Drivers/STM32F0xx_HAL_Driver/Src/stm32f0xx_hal_pcd.c **** #include "stm32f0xx_hal.h"
  74:Drivers/STM32F0xx_HAL_Driver/Src/stm32f0xx_hal_pcd.c **** 
  75:Drivers/STM32F0xx_HAL_Driver/Src/stm32f0xx_hal_pcd.c **** /** @addtogroup STM32F0xx_HAL_Driver
  76:Drivers/STM32F0xx_HAL_Driver/Src/stm32f0xx_hal_pcd.c ****   * @{
  77:Drivers/STM32F0xx_HAL_Driver/Src/stm32f0xx_hal_pcd.c ****   */
  78:Drivers/STM32F0xx_HAL_Driver/Src/stm32f0xx_hal_pcd.c **** 
  79:Drivers/STM32F0xx_HAL_Driver/Src/stm32f0xx_hal_pcd.c **** #ifdef HAL_PCD_MODULE_ENABLED
  80:Drivers/STM32F0xx_HAL_Driver/Src/stm32f0xx_hal_pcd.c **** 
  81:Drivers/STM32F0xx_HAL_Driver/Src/stm32f0xx_hal_pcd.c **** #if defined(STM32F042x6) || defined(STM32F048xx) || defined(STM32F072xB) || defined(STM32F078xx) ||
  82:Drivers/STM32F0xx_HAL_Driver/Src/stm32f0xx_hal_pcd.c **** 
  83:Drivers/STM32F0xx_HAL_Driver/Src/stm32f0xx_hal_pcd.c **** /** @defgroup PCD PCD
  84:Drivers/STM32F0xx_HAL_Driver/Src/stm32f0xx_hal_pcd.c ****   * @brief PCD HAL module driver
  85:Drivers/STM32F0xx_HAL_Driver/Src/stm32f0xx_hal_pcd.c ****   * @{
  86:Drivers/STM32F0xx_HAL_Driver/Src/stm32f0xx_hal_pcd.c ****   */
  87:Drivers/STM32F0xx_HAL_Driver/Src/stm32f0xx_hal_pcd.c **** 
  88:Drivers/STM32F0xx_HAL_Driver/Src/stm32f0xx_hal_pcd.c **** /* Private typedef -----------------------------------------------------------*/
  89:Drivers/STM32F0xx_HAL_Driver/Src/stm32f0xx_hal_pcd.c **** /* Private define ------------------------------------------------------------*/
  90:Drivers/STM32F0xx_HAL_Driver/Src/stm32f0xx_hal_pcd.c **** 
ARM GAS  /tmp/ccBeNIig.s 			page 3


  91:Drivers/STM32F0xx_HAL_Driver/Src/stm32f0xx_hal_pcd.c **** /** @defgroup PCD_Private_Define PCD Private Define
  92:Drivers/STM32F0xx_HAL_Driver/Src/stm32f0xx_hal_pcd.c ****   * @{
  93:Drivers/STM32F0xx_HAL_Driver/Src/stm32f0xx_hal_pcd.c ****   */
  94:Drivers/STM32F0xx_HAL_Driver/Src/stm32f0xx_hal_pcd.c **** #define BTABLE_ADDRESS                  (0x000)  
  95:Drivers/STM32F0xx_HAL_Driver/Src/stm32f0xx_hal_pcd.c **** /**
  96:Drivers/STM32F0xx_HAL_Driver/Src/stm32f0xx_hal_pcd.c ****   * @}
  97:Drivers/STM32F0xx_HAL_Driver/Src/stm32f0xx_hal_pcd.c ****   */ 
  98:Drivers/STM32F0xx_HAL_Driver/Src/stm32f0xx_hal_pcd.c ****   
  99:Drivers/STM32F0xx_HAL_Driver/Src/stm32f0xx_hal_pcd.c **** /* Private macro -------------------------------------------------------------*/
 100:Drivers/STM32F0xx_HAL_Driver/Src/stm32f0xx_hal_pcd.c **** /* Private variables ---------------------------------------------------------*/
 101:Drivers/STM32F0xx_HAL_Driver/Src/stm32f0xx_hal_pcd.c **** /* Private function prototypes -----------------------------------------------*/
 102:Drivers/STM32F0xx_HAL_Driver/Src/stm32f0xx_hal_pcd.c **** /** @defgroup PCD_Private_Functions PCD Private Functions
 103:Drivers/STM32F0xx_HAL_Driver/Src/stm32f0xx_hal_pcd.c ****   * @{
 104:Drivers/STM32F0xx_HAL_Driver/Src/stm32f0xx_hal_pcd.c ****   */
 105:Drivers/STM32F0xx_HAL_Driver/Src/stm32f0xx_hal_pcd.c **** static HAL_StatusTypeDef PCD_EP_ISR_Handler(PCD_HandleTypeDef *hpcd);
 106:Drivers/STM32F0xx_HAL_Driver/Src/stm32f0xx_hal_pcd.c **** void PCD_WritePMA(USB_TypeDef  *USBx, uint8_t *pbUsrBuf, uint16_t wPMABufAddr, uint16_t wNBytes);
 107:Drivers/STM32F0xx_HAL_Driver/Src/stm32f0xx_hal_pcd.c **** void PCD_ReadPMA(USB_TypeDef  *USBx, uint8_t *pbUsrBuf, uint16_t wPMABufAddr, uint16_t wNBytes);
 108:Drivers/STM32F0xx_HAL_Driver/Src/stm32f0xx_hal_pcd.c **** /**
 109:Drivers/STM32F0xx_HAL_Driver/Src/stm32f0xx_hal_pcd.c ****   * @}
 110:Drivers/STM32F0xx_HAL_Driver/Src/stm32f0xx_hal_pcd.c ****   */ 
 111:Drivers/STM32F0xx_HAL_Driver/Src/stm32f0xx_hal_pcd.c **** 
 112:Drivers/STM32F0xx_HAL_Driver/Src/stm32f0xx_hal_pcd.c **** /* Exported functions --------------------------------------------------------*/
 113:Drivers/STM32F0xx_HAL_Driver/Src/stm32f0xx_hal_pcd.c **** /** @defgroup PCD_Exported_Functions PCD Exported Functions
 114:Drivers/STM32F0xx_HAL_Driver/Src/stm32f0xx_hal_pcd.c ****   * @{
 115:Drivers/STM32F0xx_HAL_Driver/Src/stm32f0xx_hal_pcd.c ****   */
 116:Drivers/STM32F0xx_HAL_Driver/Src/stm32f0xx_hal_pcd.c **** 
 117:Drivers/STM32F0xx_HAL_Driver/Src/stm32f0xx_hal_pcd.c **** /** @defgroup PCD_Exported_Functions_Group1 Initialization and de-initialization functions 
 118:Drivers/STM32F0xx_HAL_Driver/Src/stm32f0xx_hal_pcd.c ****  *  @brief    Initialization and Configuration functions 
 119:Drivers/STM32F0xx_HAL_Driver/Src/stm32f0xx_hal_pcd.c ****  *
 120:Drivers/STM32F0xx_HAL_Driver/Src/stm32f0xx_hal_pcd.c **** @verbatim
 121:Drivers/STM32F0xx_HAL_Driver/Src/stm32f0xx_hal_pcd.c ****  ===============================================================================
 122:Drivers/STM32F0xx_HAL_Driver/Src/stm32f0xx_hal_pcd.c ****             ##### Initialization and de-initialization functions #####
 123:Drivers/STM32F0xx_HAL_Driver/Src/stm32f0xx_hal_pcd.c ****  ===============================================================================
 124:Drivers/STM32F0xx_HAL_Driver/Src/stm32f0xx_hal_pcd.c ****     [..]  This section provides functions allowing to:
 125:Drivers/STM32F0xx_HAL_Driver/Src/stm32f0xx_hal_pcd.c ****  
 126:Drivers/STM32F0xx_HAL_Driver/Src/stm32f0xx_hal_pcd.c **** @endverbatim
 127:Drivers/STM32F0xx_HAL_Driver/Src/stm32f0xx_hal_pcd.c ****   * @{
 128:Drivers/STM32F0xx_HAL_Driver/Src/stm32f0xx_hal_pcd.c ****   */
 129:Drivers/STM32F0xx_HAL_Driver/Src/stm32f0xx_hal_pcd.c **** 
 130:Drivers/STM32F0xx_HAL_Driver/Src/stm32f0xx_hal_pcd.c **** /**
 131:Drivers/STM32F0xx_HAL_Driver/Src/stm32f0xx_hal_pcd.c ****   * @brief  Initializes the PCD according to the specified
 132:Drivers/STM32F0xx_HAL_Driver/Src/stm32f0xx_hal_pcd.c ****   *         parameters in the PCD_InitTypeDef and create the associated handle.
 133:Drivers/STM32F0xx_HAL_Driver/Src/stm32f0xx_hal_pcd.c ****   * @param  hpcd: PCD handle
 134:Drivers/STM32F0xx_HAL_Driver/Src/stm32f0xx_hal_pcd.c ****   * @retval HAL status
 135:Drivers/STM32F0xx_HAL_Driver/Src/stm32f0xx_hal_pcd.c ****   */
 136:Drivers/STM32F0xx_HAL_Driver/Src/stm32f0xx_hal_pcd.c **** HAL_StatusTypeDef HAL_PCD_Init(PCD_HandleTypeDef *hpcd)
 137:Drivers/STM32F0xx_HAL_Driver/Src/stm32f0xx_hal_pcd.c **** { 
 138:Drivers/STM32F0xx_HAL_Driver/Src/stm32f0xx_hal_pcd.c ****   uint32_t i = 0U;
 139:Drivers/STM32F0xx_HAL_Driver/Src/stm32f0xx_hal_pcd.c **** 
 140:Drivers/STM32F0xx_HAL_Driver/Src/stm32f0xx_hal_pcd.c ****   uint32_t wInterrupt_Mask = 0U;
 141:Drivers/STM32F0xx_HAL_Driver/Src/stm32f0xx_hal_pcd.c ****   
 142:Drivers/STM32F0xx_HAL_Driver/Src/stm32f0xx_hal_pcd.c ****   /* Check the PCD handle allocation */
 143:Drivers/STM32F0xx_HAL_Driver/Src/stm32f0xx_hal_pcd.c ****   if(hpcd == NULL)
 144:Drivers/STM32F0xx_HAL_Driver/Src/stm32f0xx_hal_pcd.c ****   {
 145:Drivers/STM32F0xx_HAL_Driver/Src/stm32f0xx_hal_pcd.c ****     return HAL_ERROR;
 146:Drivers/STM32F0xx_HAL_Driver/Src/stm32f0xx_hal_pcd.c ****   }
 147:Drivers/STM32F0xx_HAL_Driver/Src/stm32f0xx_hal_pcd.c ****   
ARM GAS  /tmp/ccBeNIig.s 			page 4


 148:Drivers/STM32F0xx_HAL_Driver/Src/stm32f0xx_hal_pcd.c ****   /* Check the parameters */
 149:Drivers/STM32F0xx_HAL_Driver/Src/stm32f0xx_hal_pcd.c ****   assert_param(IS_PCD_ALL_INSTANCE(hpcd->Instance));
 150:Drivers/STM32F0xx_HAL_Driver/Src/stm32f0xx_hal_pcd.c **** 
 151:Drivers/STM32F0xx_HAL_Driver/Src/stm32f0xx_hal_pcd.c ****   if(hpcd->State == HAL_PCD_STATE_RESET)
 152:Drivers/STM32F0xx_HAL_Driver/Src/stm32f0xx_hal_pcd.c ****   {  
 153:Drivers/STM32F0xx_HAL_Driver/Src/stm32f0xx_hal_pcd.c ****     /* Allocate lock resource and initialize it */
 154:Drivers/STM32F0xx_HAL_Driver/Src/stm32f0xx_hal_pcd.c ****     hpcd->Lock = HAL_UNLOCKED;
 155:Drivers/STM32F0xx_HAL_Driver/Src/stm32f0xx_hal_pcd.c ****   
 156:Drivers/STM32F0xx_HAL_Driver/Src/stm32f0xx_hal_pcd.c ****     /* Init the low level hardware : GPIO, CLOCK, NVIC... */
 157:Drivers/STM32F0xx_HAL_Driver/Src/stm32f0xx_hal_pcd.c ****     HAL_PCD_MspInit(hpcd);
 158:Drivers/STM32F0xx_HAL_Driver/Src/stm32f0xx_hal_pcd.c ****   }
 159:Drivers/STM32F0xx_HAL_Driver/Src/stm32f0xx_hal_pcd.c **** 
 160:Drivers/STM32F0xx_HAL_Driver/Src/stm32f0xx_hal_pcd.c ****   hpcd->State = HAL_PCD_STATE_BUSY;
 161:Drivers/STM32F0xx_HAL_Driver/Src/stm32f0xx_hal_pcd.c ****  
 162:Drivers/STM32F0xx_HAL_Driver/Src/stm32f0xx_hal_pcd.c ****  /* Init endpoints structures */
 163:Drivers/STM32F0xx_HAL_Driver/Src/stm32f0xx_hal_pcd.c ****  for (i = 0U; i < hpcd->Init.dev_endpoints ; i++)
 164:Drivers/STM32F0xx_HAL_Driver/Src/stm32f0xx_hal_pcd.c ****  {
 165:Drivers/STM32F0xx_HAL_Driver/Src/stm32f0xx_hal_pcd.c ****    /* Init ep structure */
 166:Drivers/STM32F0xx_HAL_Driver/Src/stm32f0xx_hal_pcd.c ****    hpcd->IN_ep[i].is_in = 1U;
 167:Drivers/STM32F0xx_HAL_Driver/Src/stm32f0xx_hal_pcd.c ****    hpcd->IN_ep[i].num = i;
 168:Drivers/STM32F0xx_HAL_Driver/Src/stm32f0xx_hal_pcd.c ****    /* Control until ep is actvated */
 169:Drivers/STM32F0xx_HAL_Driver/Src/stm32f0xx_hal_pcd.c ****    hpcd->IN_ep[i].type = PCD_EP_TYPE_CTRL;
 170:Drivers/STM32F0xx_HAL_Driver/Src/stm32f0xx_hal_pcd.c ****    hpcd->IN_ep[i].maxpacket =  0U;
 171:Drivers/STM32F0xx_HAL_Driver/Src/stm32f0xx_hal_pcd.c ****    hpcd->IN_ep[i].xfer_buff = 0U;
 172:Drivers/STM32F0xx_HAL_Driver/Src/stm32f0xx_hal_pcd.c ****    hpcd->IN_ep[i].xfer_len = 0U;
 173:Drivers/STM32F0xx_HAL_Driver/Src/stm32f0xx_hal_pcd.c ****  }
 174:Drivers/STM32F0xx_HAL_Driver/Src/stm32f0xx_hal_pcd.c ****  
 175:Drivers/STM32F0xx_HAL_Driver/Src/stm32f0xx_hal_pcd.c ****  for (i = 0U; i < hpcd->Init.dev_endpoints ; i++)
 176:Drivers/STM32F0xx_HAL_Driver/Src/stm32f0xx_hal_pcd.c ****  {
 177:Drivers/STM32F0xx_HAL_Driver/Src/stm32f0xx_hal_pcd.c ****    hpcd->OUT_ep[i].is_in = 0U;
 178:Drivers/STM32F0xx_HAL_Driver/Src/stm32f0xx_hal_pcd.c ****    hpcd->OUT_ep[i].num = i;
 179:Drivers/STM32F0xx_HAL_Driver/Src/stm32f0xx_hal_pcd.c ****    /* Control until ep is activated */
 180:Drivers/STM32F0xx_HAL_Driver/Src/stm32f0xx_hal_pcd.c ****    hpcd->OUT_ep[i].type = PCD_EP_TYPE_CTRL;
 181:Drivers/STM32F0xx_HAL_Driver/Src/stm32f0xx_hal_pcd.c ****    hpcd->OUT_ep[i].maxpacket = 0U;
 182:Drivers/STM32F0xx_HAL_Driver/Src/stm32f0xx_hal_pcd.c ****    hpcd->OUT_ep[i].xfer_buff = 0U;
 183:Drivers/STM32F0xx_HAL_Driver/Src/stm32f0xx_hal_pcd.c ****    hpcd->OUT_ep[i].xfer_len = 0U;
 184:Drivers/STM32F0xx_HAL_Driver/Src/stm32f0xx_hal_pcd.c ****  }
 185:Drivers/STM32F0xx_HAL_Driver/Src/stm32f0xx_hal_pcd.c ****   
 186:Drivers/STM32F0xx_HAL_Driver/Src/stm32f0xx_hal_pcd.c ****  /* Init Device */
 187:Drivers/STM32F0xx_HAL_Driver/Src/stm32f0xx_hal_pcd.c ****  /*CNTR_FRES = 1*/
 188:Drivers/STM32F0xx_HAL_Driver/Src/stm32f0xx_hal_pcd.c ****  hpcd->Instance->CNTR = USB_CNTR_FRES;
 189:Drivers/STM32F0xx_HAL_Driver/Src/stm32f0xx_hal_pcd.c ****  
 190:Drivers/STM32F0xx_HAL_Driver/Src/stm32f0xx_hal_pcd.c ****  /*CNTR_FRES = 0*/
 191:Drivers/STM32F0xx_HAL_Driver/Src/stm32f0xx_hal_pcd.c ****  hpcd->Instance->CNTR = 0;
 192:Drivers/STM32F0xx_HAL_Driver/Src/stm32f0xx_hal_pcd.c ****  
 193:Drivers/STM32F0xx_HAL_Driver/Src/stm32f0xx_hal_pcd.c ****  /*Clear pending interrupts*/
 194:Drivers/STM32F0xx_HAL_Driver/Src/stm32f0xx_hal_pcd.c ****  hpcd->Instance->ISTR = 0;
 195:Drivers/STM32F0xx_HAL_Driver/Src/stm32f0xx_hal_pcd.c ****  
 196:Drivers/STM32F0xx_HAL_Driver/Src/stm32f0xx_hal_pcd.c ****   /*Set Btable Adress*/
 197:Drivers/STM32F0xx_HAL_Driver/Src/stm32f0xx_hal_pcd.c ****  hpcd->Instance->BTABLE = BTABLE_ADDRESS;
 198:Drivers/STM32F0xx_HAL_Driver/Src/stm32f0xx_hal_pcd.c ****   
 199:Drivers/STM32F0xx_HAL_Driver/Src/stm32f0xx_hal_pcd.c ****   /*set wInterrupt_Mask global variable*/
 200:Drivers/STM32F0xx_HAL_Driver/Src/stm32f0xx_hal_pcd.c ****  wInterrupt_Mask = USB_CNTR_CTRM  | USB_CNTR_WKUPM | USB_CNTR_SUSPM | USB_CNTR_ERRM \
 201:Drivers/STM32F0xx_HAL_Driver/Src/stm32f0xx_hal_pcd.c ****    | USB_CNTR_SOFM | USB_CNTR_ESOFM | USB_CNTR_RESETM;
 202:Drivers/STM32F0xx_HAL_Driver/Src/stm32f0xx_hal_pcd.c ****   
 203:Drivers/STM32F0xx_HAL_Driver/Src/stm32f0xx_hal_pcd.c ****   /*Set interrupt mask*/
 204:Drivers/STM32F0xx_HAL_Driver/Src/stm32f0xx_hal_pcd.c ****   hpcd->Instance->CNTR = wInterrupt_Mask;
ARM GAS  /tmp/ccBeNIig.s 			page 5


 205:Drivers/STM32F0xx_HAL_Driver/Src/stm32f0xx_hal_pcd.c ****   
 206:Drivers/STM32F0xx_HAL_Driver/Src/stm32f0xx_hal_pcd.c ****   hpcd->USB_Address = 0U;
 207:Drivers/STM32F0xx_HAL_Driver/Src/stm32f0xx_hal_pcd.c ****   hpcd->State= HAL_PCD_STATE_READY;
 208:Drivers/STM32F0xx_HAL_Driver/Src/stm32f0xx_hal_pcd.c **** 
 209:Drivers/STM32F0xx_HAL_Driver/Src/stm32f0xx_hal_pcd.c ****  return HAL_OK;
 210:Drivers/STM32F0xx_HAL_Driver/Src/stm32f0xx_hal_pcd.c **** }
 211:Drivers/STM32F0xx_HAL_Driver/Src/stm32f0xx_hal_pcd.c **** 
 212:Drivers/STM32F0xx_HAL_Driver/Src/stm32f0xx_hal_pcd.c **** /**
 213:Drivers/STM32F0xx_HAL_Driver/Src/stm32f0xx_hal_pcd.c ****   * @brief  DeInitializes the PCD peripheral 
 214:Drivers/STM32F0xx_HAL_Driver/Src/stm32f0xx_hal_pcd.c ****   * @param  hpcd: PCD handle
 215:Drivers/STM32F0xx_HAL_Driver/Src/stm32f0xx_hal_pcd.c ****   * @retval HAL status
 216:Drivers/STM32F0xx_HAL_Driver/Src/stm32f0xx_hal_pcd.c ****   */
 217:Drivers/STM32F0xx_HAL_Driver/Src/stm32f0xx_hal_pcd.c **** HAL_StatusTypeDef HAL_PCD_DeInit(PCD_HandleTypeDef *hpcd)
 218:Drivers/STM32F0xx_HAL_Driver/Src/stm32f0xx_hal_pcd.c **** {
 219:Drivers/STM32F0xx_HAL_Driver/Src/stm32f0xx_hal_pcd.c ****   /* Check the PCD handle allocation */
 220:Drivers/STM32F0xx_HAL_Driver/Src/stm32f0xx_hal_pcd.c ****   if(hpcd == NULL)
 221:Drivers/STM32F0xx_HAL_Driver/Src/stm32f0xx_hal_pcd.c ****   {
 222:Drivers/STM32F0xx_HAL_Driver/Src/stm32f0xx_hal_pcd.c ****     return HAL_ERROR;
 223:Drivers/STM32F0xx_HAL_Driver/Src/stm32f0xx_hal_pcd.c ****   }
 224:Drivers/STM32F0xx_HAL_Driver/Src/stm32f0xx_hal_pcd.c **** 
 225:Drivers/STM32F0xx_HAL_Driver/Src/stm32f0xx_hal_pcd.c ****   hpcd->State = HAL_PCD_STATE_BUSY;
 226:Drivers/STM32F0xx_HAL_Driver/Src/stm32f0xx_hal_pcd.c ****   
 227:Drivers/STM32F0xx_HAL_Driver/Src/stm32f0xx_hal_pcd.c ****   /* Stop Device */
 228:Drivers/STM32F0xx_HAL_Driver/Src/stm32f0xx_hal_pcd.c ****   HAL_PCD_Stop(hpcd);
 229:Drivers/STM32F0xx_HAL_Driver/Src/stm32f0xx_hal_pcd.c ****     
 230:Drivers/STM32F0xx_HAL_Driver/Src/stm32f0xx_hal_pcd.c ****   /* DeInit the low level hardware */
 231:Drivers/STM32F0xx_HAL_Driver/Src/stm32f0xx_hal_pcd.c ****   HAL_PCD_MspDeInit(hpcd);
 232:Drivers/STM32F0xx_HAL_Driver/Src/stm32f0xx_hal_pcd.c ****   
 233:Drivers/STM32F0xx_HAL_Driver/Src/stm32f0xx_hal_pcd.c ****   hpcd->State = HAL_PCD_STATE_RESET; 
 234:Drivers/STM32F0xx_HAL_Driver/Src/stm32f0xx_hal_pcd.c ****   
 235:Drivers/STM32F0xx_HAL_Driver/Src/stm32f0xx_hal_pcd.c ****   return HAL_OK;
 236:Drivers/STM32F0xx_HAL_Driver/Src/stm32f0xx_hal_pcd.c **** }
 237:Drivers/STM32F0xx_HAL_Driver/Src/stm32f0xx_hal_pcd.c **** 
 238:Drivers/STM32F0xx_HAL_Driver/Src/stm32f0xx_hal_pcd.c **** /**
 239:Drivers/STM32F0xx_HAL_Driver/Src/stm32f0xx_hal_pcd.c ****   * @brief  Initializes the PCD MSP.
 240:Drivers/STM32F0xx_HAL_Driver/Src/stm32f0xx_hal_pcd.c ****   * @param  hpcd: PCD handle
 241:Drivers/STM32F0xx_HAL_Driver/Src/stm32f0xx_hal_pcd.c ****   * @retval None
 242:Drivers/STM32F0xx_HAL_Driver/Src/stm32f0xx_hal_pcd.c ****   */
 243:Drivers/STM32F0xx_HAL_Driver/Src/stm32f0xx_hal_pcd.c **** __weak void HAL_PCD_MspInit(PCD_HandleTypeDef *hpcd)
 244:Drivers/STM32F0xx_HAL_Driver/Src/stm32f0xx_hal_pcd.c **** {
  26              		.loc 1 244 0
  27              		.cfi_startproc
  28              	.LVL0:
 245:Drivers/STM32F0xx_HAL_Driver/Src/stm32f0xx_hal_pcd.c ****   /* Prevent unused argument(s) compilation warning */
 246:Drivers/STM32F0xx_HAL_Driver/Src/stm32f0xx_hal_pcd.c ****   UNUSED(hpcd);
 247:Drivers/STM32F0xx_HAL_Driver/Src/stm32f0xx_hal_pcd.c **** 
 248:Drivers/STM32F0xx_HAL_Driver/Src/stm32f0xx_hal_pcd.c ****   /* NOTE : This function Should not be modified, when the callback is needed,
 249:Drivers/STM32F0xx_HAL_Driver/Src/stm32f0xx_hal_pcd.c ****             the HAL_PCD_MspInit could be implemented in the user file
 250:Drivers/STM32F0xx_HAL_Driver/Src/stm32f0xx_hal_pcd.c ****    */
 251:Drivers/STM32F0xx_HAL_Driver/Src/stm32f0xx_hal_pcd.c **** }
  29              		.loc 1 251 0
  30              		@ sp needed
  31 0000 7047     		bx	lr
  32              		.cfi_endproc
  33              	.LFE36:
  35 0002 C046     		.section	.text.HAL_PCD_Init,"ax",%progbits
  36              		.align	2
ARM GAS  /tmp/ccBeNIig.s 			page 6


  37              		.global	HAL_PCD_Init
  38              		.code	16
  39              		.thumb_func
  41              	HAL_PCD_Init:
  42              	.LFB34:
 137:Drivers/STM32F0xx_HAL_Driver/Src/stm32f0xx_hal_pcd.c **** { 
  43              		.loc 1 137 0
  44              		.cfi_startproc
  45              	.LVL1:
  46 0000 70B5     		push	{r4, r5, r6, lr}
  47              	.LCFI0:
  48              		.cfi_def_cfa_offset 16
  49              		.cfi_offset 4, -16
  50              		.cfi_offset 5, -12
  51              		.cfi_offset 6, -8
  52              		.cfi_offset 14, -4
  53 0002 041E     		sub	r4, r0, #0
  54              	.LVL2:
 143:Drivers/STM32F0xx_HAL_Driver/Src/stm32f0xx_hal_pcd.c ****   if(hpcd == NULL)
  55              		.loc 1 143 0
  56 0004 53D0     		beq	.L9
 151:Drivers/STM32F0xx_HAL_Driver/Src/stm32f0xx_hal_pcd.c ****   if(hpcd->State == HAL_PCD_STATE_RESET)
  57              		.loc 1 151 0
  58 0006 EA23     		mov	r3, #234
  59 0008 FF33     		add	r3, r3, #255
  60 000a C35C     		ldrb	r3, [r0, r3]
  61 000c 002B     		cmp	r3, #0
  62 000e 05D1     		bne	.L4
 154:Drivers/STM32F0xx_HAL_Driver/Src/stm32f0xx_hal_pcd.c ****     hpcd->Lock = HAL_UNLOCKED;
  63              		.loc 1 154 0
  64 0010 0022     		mov	r2, #0
  65 0012 F423     		mov	r3, #244
  66 0014 5B00     		lsl	r3, r3, #1
  67 0016 C254     		strb	r2, [r0, r3]
 157:Drivers/STM32F0xx_HAL_Driver/Src/stm32f0xx_hal_pcd.c ****     HAL_PCD_MspInit(hpcd);
  68              		.loc 1 157 0
  69 0018 FFF7FEFF 		bl	HAL_PCD_MspInit
  70              	.LVL3:
  71              	.L4:
 160:Drivers/STM32F0xx_HAL_Driver/Src/stm32f0xx_hal_pcd.c ****   hpcd->State = HAL_PCD_STATE_BUSY;
  72              		.loc 1 160 0
  73 001c 0322     		mov	r2, #3
  74 001e EA23     		mov	r3, #234
  75 0020 FF33     		add	r3, r3, #255
  76 0022 E254     		strb	r2, [r4, r3]
 163:Drivers/STM32F0xx_HAL_Driver/Src/stm32f0xx_hal_pcd.c ****  for (i = 0U; i < hpcd->Init.dev_endpoints ; i++)
  77              		.loc 1 163 0
  78 0024 0023     		mov	r3, #0
 166:Drivers/STM32F0xx_HAL_Driver/Src/stm32f0xx_hal_pcd.c ****    hpcd->IN_ep[i].is_in = 1U;
  79              		.loc 1 166 0
  80 0026 0126     		mov	r6, #1
 169:Drivers/STM32F0xx_HAL_Driver/Src/stm32f0xx_hal_pcd.c ****    hpcd->IN_ep[i].type = PCD_EP_TYPE_CTRL;
  81              		.loc 1 169 0
  82 0028 0021     		mov	r1, #0
 163:Drivers/STM32F0xx_HAL_Driver/Src/stm32f0xx_hal_pcd.c ****  for (i = 0U; i < hpcd->Init.dev_endpoints ; i++)
  83              		.loc 1 163 0
  84 002a 0CE0     		b	.L5
ARM GAS  /tmp/ccBeNIig.s 			page 7


  85              	.LVL4:
  86              	.L6:
 166:Drivers/STM32F0xx_HAL_Driver/Src/stm32f0xx_hal_pcd.c ****    hpcd->IN_ep[i].is_in = 1U;
  87              		.loc 1 166 0 discriminator 2
  88 002c DA00     		lsl	r2, r3, #3
  89 002e D21A     		sub	r2, r2, r3
  90 0030 9200     		lsl	r2, r2, #2
  91 0032 A218     		add	r2, r4, r2
  92 0034 101C     		mov	r0, r2
  93 0036 2830     		add	r0, r0, #40
  94 0038 4670     		strb	r6, [r0, #1]
 167:Drivers/STM32F0xx_HAL_Driver/Src/stm32f0xx_hal_pcd.c ****    hpcd->IN_ep[i].num = i;
  95              		.loc 1 167 0 discriminator 2
  96 003a 0370     		strb	r3, [r0]
 169:Drivers/STM32F0xx_HAL_Driver/Src/stm32f0xx_hal_pcd.c ****    hpcd->IN_ep[i].type = PCD_EP_TYPE_CTRL;
  97              		.loc 1 169 0 discriminator 2
  98 003c C170     		strb	r1, [r0, #3]
 170:Drivers/STM32F0xx_HAL_Driver/Src/stm32f0xx_hal_pcd.c ****    hpcd->IN_ep[i].maxpacket =  0U;
  99              		.loc 1 170 0 discriminator 2
 100 003e 5163     		str	r1, [r2, #52]
 171:Drivers/STM32F0xx_HAL_Driver/Src/stm32f0xx_hal_pcd.c ****    hpcd->IN_ep[i].xfer_buff = 0U;
 101              		.loc 1 171 0 discriminator 2
 102 0040 9163     		str	r1, [r2, #56]
 172:Drivers/STM32F0xx_HAL_Driver/Src/stm32f0xx_hal_pcd.c ****    hpcd->IN_ep[i].xfer_len = 0U;
 103              		.loc 1 172 0 discriminator 2
 104 0042 D163     		str	r1, [r2, #60]
 163:Drivers/STM32F0xx_HAL_Driver/Src/stm32f0xx_hal_pcd.c ****  for (i = 0U; i < hpcd->Init.dev_endpoints ; i++)
 105              		.loc 1 163 0 discriminator 2
 106 0044 0133     		add	r3, r3, #1
 107              	.LVL5:
 108              	.L5:
 163:Drivers/STM32F0xx_HAL_Driver/Src/stm32f0xx_hal_pcd.c ****  for (i = 0U; i < hpcd->Init.dev_endpoints ; i++)
 109              		.loc 1 163 0 is_stmt 0 discriminator 1
 110 0046 6568     		ldr	r5, [r4, #4]
 111 0048 9D42     		cmp	r5, r3
 112 004a EFD8     		bhi	.L6
 113 004c 0023     		mov	r3, #0
 114              	.LVL6:
 177:Drivers/STM32F0xx_HAL_Driver/Src/stm32f0xx_hal_pcd.c ****    hpcd->OUT_ep[i].is_in = 0U;
 115              		.loc 1 177 0 is_stmt 1
 116 004e 0022     		mov	r2, #0
 117 0050 12E0     		b	.L7
 118              	.LVL7:
 119              	.L8:
 177:Drivers/STM32F0xx_HAL_Driver/Src/stm32f0xx_hal_pcd.c ****    hpcd->OUT_ep[i].is_in = 0U;
 120              		.loc 1 177 0 is_stmt 0 discriminator 2
 121 0052 D900     		lsl	r1, r3, #3
 122 0054 C91A     		sub	r1, r1, r3
 123 0056 8900     		lsl	r1, r1, #2
 124 0058 6118     		add	r1, r4, r1
 125 005a 8426     		mov	r6, #132
 126 005c 7600     		lsl	r6, r6, #1
 127 005e 8819     		add	r0, r1, r6
 128 0060 4270     		strb	r2, [r0, #1]
 178:Drivers/STM32F0xx_HAL_Driver/Src/stm32f0xx_hal_pcd.c ****    hpcd->OUT_ep[i].num = i;
 129              		.loc 1 178 0 is_stmt 1 discriminator 2
 130 0062 0370     		strb	r3, [r0]
ARM GAS  /tmp/ccBeNIig.s 			page 8


 180:Drivers/STM32F0xx_HAL_Driver/Src/stm32f0xx_hal_pcd.c ****    hpcd->OUT_ep[i].type = PCD_EP_TYPE_CTRL;
 131              		.loc 1 180 0 discriminator 2
 132 0064 C270     		strb	r2, [r0, #3]
 181:Drivers/STM32F0xx_HAL_Driver/Src/stm32f0xx_hal_pcd.c ****    hpcd->OUT_ep[i].maxpacket = 0U;
 133              		.loc 1 181 0 discriminator 2
 134 0066 8826     		mov	r6, #136
 135 0068 7600     		lsl	r6, r6, #1
 136 006a 8819     		add	r0, r1, r6
 137 006c 4260     		str	r2, [r0, #4]
 182:Drivers/STM32F0xx_HAL_Driver/Src/stm32f0xx_hal_pcd.c ****    hpcd->OUT_ep[i].xfer_buff = 0U;
 138              		.loc 1 182 0 discriminator 2
 139 006e 1931     		add	r1, r1, #25
 140 0070 FF31     		add	r1, r1, #255
 141 0072 0A60     		str	r2, [r1]
 183:Drivers/STM32F0xx_HAL_Driver/Src/stm32f0xx_hal_pcd.c ****    hpcd->OUT_ep[i].xfer_len = 0U;
 142              		.loc 1 183 0 discriminator 2
 143 0074 4A60     		str	r2, [r1, #4]
 175:Drivers/STM32F0xx_HAL_Driver/Src/stm32f0xx_hal_pcd.c ****  for (i = 0U; i < hpcd->Init.dev_endpoints ; i++)
 144              		.loc 1 175 0 discriminator 2
 145 0076 0133     		add	r3, r3, #1
 146              	.LVL8:
 147              	.L7:
 175:Drivers/STM32F0xx_HAL_Driver/Src/stm32f0xx_hal_pcd.c ****  for (i = 0U; i < hpcd->Init.dev_endpoints ; i++)
 148              		.loc 1 175 0 is_stmt 0 discriminator 1
 149 0078 AB42     		cmp	r3, r5
 150 007a EAD3     		bcc	.L8
 188:Drivers/STM32F0xx_HAL_Driver/Src/stm32f0xx_hal_pcd.c ****  hpcd->Instance->CNTR = USB_CNTR_FRES;
 151              		.loc 1 188 0 is_stmt 1
 152 007c 4023     		mov	r3, #64
 153              	.LVL9:
 154 007e 0122     		mov	r2, #1
 155 0080 2068     		ldr	r0, [r4]
 156 0082 C252     		strh	r2, [r0, r3]
 191:Drivers/STM32F0xx_HAL_Driver/Src/stm32f0xx_hal_pcd.c ****  hpcd->Instance->CNTR = 0;
 157              		.loc 1 191 0
 158 0084 0022     		mov	r2, #0
 159 0086 2168     		ldr	r1, [r4]
 160 0088 CA52     		strh	r2, [r1, r3]
 194:Drivers/STM32F0xx_HAL_Driver/Src/stm32f0xx_hal_pcd.c ****  hpcd->Instance->ISTR = 0;
 161              		.loc 1 194 0
 162 008a 4421     		mov	r1, #68
 163 008c 2668     		ldr	r6, [r4]
 164 008e 7252     		strh	r2, [r6, r1]
 197:Drivers/STM32F0xx_HAL_Driver/Src/stm32f0xx_hal_pcd.c ****  hpcd->Instance->BTABLE = BTABLE_ADDRESS;
 165              		.loc 1 197 0
 166 0090 5021     		mov	r1, #80
 167 0092 2068     		ldr	r0, [r4]
 168 0094 4252     		strh	r2, [r0, r1]
 169              	.LVL10:
 204:Drivers/STM32F0xx_HAL_Driver/Src/stm32f0xx_hal_pcd.c ****   hpcd->Instance->CNTR = wInterrupt_Mask;
 170              		.loc 1 204 0
 171 0096 074A     		ldr	r2, .L10
 172 0098 2168     		ldr	r1, [r4]
 173 009a CA52     		strh	r2, [r1, r3]
 206:Drivers/STM32F0xx_HAL_Driver/Src/stm32f0xx_hal_pcd.c ****   hpcd->USB_Address = 0U;
 174              		.loc 1 206 0
 175 009c 2423     		mov	r3, #36
ARM GAS  /tmp/ccBeNIig.s 			page 9


 176 009e 0022     		mov	r2, #0
 177 00a0 E254     		strb	r2, [r4, r3]
 207:Drivers/STM32F0xx_HAL_Driver/Src/stm32f0xx_hal_pcd.c ****   hpcd->State= HAL_PCD_STATE_READY;
 178              		.loc 1 207 0
 179 00a2 EA23     		mov	r3, #234
 180 00a4 FF33     		add	r3, r3, #255
 181 00a6 0122     		mov	r2, #1
 182 00a8 E254     		strb	r2, [r4, r3]
 209:Drivers/STM32F0xx_HAL_Driver/Src/stm32f0xx_hal_pcd.c ****  return HAL_OK;
 183              		.loc 1 209 0
 184 00aa 0020     		mov	r0, #0
 185 00ac 00E0     		b	.L3
 186              	.LVL11:
 187              	.L9:
 145:Drivers/STM32F0xx_HAL_Driver/Src/stm32f0xx_hal_pcd.c ****     return HAL_ERROR;
 188              		.loc 1 145 0
 189 00ae 0120     		mov	r0, #1
 190              	.LVL12:
 191              	.L3:
 210:Drivers/STM32F0xx_HAL_Driver/Src/stm32f0xx_hal_pcd.c **** }
 192              		.loc 1 210 0
 193              		@ sp needed
 194              	.LVL13:
 195 00b0 70BD     		pop	{r4, r5, r6, pc}
 196              	.L11:
 197 00b2 C046     		.align	2
 198              	.L10:
 199 00b4 00BFFFFF 		.word	-16640
 200              		.cfi_endproc
 201              	.LFE34:
 203              		.section	.text.HAL_PCD_MspDeInit,"ax",%progbits
 204              		.align	2
 205              		.weak	HAL_PCD_MspDeInit
 206              		.code	16
 207              		.thumb_func
 209              	HAL_PCD_MspDeInit:
 210              	.LFB37:
 252:Drivers/STM32F0xx_HAL_Driver/Src/stm32f0xx_hal_pcd.c **** 
 253:Drivers/STM32F0xx_HAL_Driver/Src/stm32f0xx_hal_pcd.c **** /**
 254:Drivers/STM32F0xx_HAL_Driver/Src/stm32f0xx_hal_pcd.c ****   * @brief  DeInitializes PCD MSP.
 255:Drivers/STM32F0xx_HAL_Driver/Src/stm32f0xx_hal_pcd.c ****   * @param  hpcd: PCD handle
 256:Drivers/STM32F0xx_HAL_Driver/Src/stm32f0xx_hal_pcd.c ****   * @retval None
 257:Drivers/STM32F0xx_HAL_Driver/Src/stm32f0xx_hal_pcd.c ****   */
 258:Drivers/STM32F0xx_HAL_Driver/Src/stm32f0xx_hal_pcd.c **** __weak void HAL_PCD_MspDeInit(PCD_HandleTypeDef *hpcd)
 259:Drivers/STM32F0xx_HAL_Driver/Src/stm32f0xx_hal_pcd.c **** {
 211              		.loc 1 259 0
 212              		.cfi_startproc
 213              	.LVL14:
 260:Drivers/STM32F0xx_HAL_Driver/Src/stm32f0xx_hal_pcd.c ****   /* Prevent unused argument(s) compilation warning */
 261:Drivers/STM32F0xx_HAL_Driver/Src/stm32f0xx_hal_pcd.c ****   UNUSED(hpcd);
 262:Drivers/STM32F0xx_HAL_Driver/Src/stm32f0xx_hal_pcd.c **** 
 263:Drivers/STM32F0xx_HAL_Driver/Src/stm32f0xx_hal_pcd.c ****   /* NOTE : This function Should not be modified, when the callback is needed,
 264:Drivers/STM32F0xx_HAL_Driver/Src/stm32f0xx_hal_pcd.c ****             the HAL_PCD_MspDeInit could be implemented in the user file
 265:Drivers/STM32F0xx_HAL_Driver/Src/stm32f0xx_hal_pcd.c ****    */
 266:Drivers/STM32F0xx_HAL_Driver/Src/stm32f0xx_hal_pcd.c **** }
 214              		.loc 1 266 0
 215              		@ sp needed
ARM GAS  /tmp/ccBeNIig.s 			page 10


 216 0000 7047     		bx	lr
 217              		.cfi_endproc
 218              	.LFE37:
 220 0002 C046     		.section	.text.HAL_PCD_Start,"ax",%progbits
 221              		.align	2
 222              		.global	HAL_PCD_Start
 223              		.code	16
 224              		.thumb_func
 226              	HAL_PCD_Start:
 227              	.LFB38:
 267:Drivers/STM32F0xx_HAL_Driver/Src/stm32f0xx_hal_pcd.c **** 
 268:Drivers/STM32F0xx_HAL_Driver/Src/stm32f0xx_hal_pcd.c **** /**
 269:Drivers/STM32F0xx_HAL_Driver/Src/stm32f0xx_hal_pcd.c ****   * @}
 270:Drivers/STM32F0xx_HAL_Driver/Src/stm32f0xx_hal_pcd.c ****   */
 271:Drivers/STM32F0xx_HAL_Driver/Src/stm32f0xx_hal_pcd.c **** 
 272:Drivers/STM32F0xx_HAL_Driver/Src/stm32f0xx_hal_pcd.c **** /** @defgroup PCD_Exported_Functions_Group2 IO operation functions 
 273:Drivers/STM32F0xx_HAL_Driver/Src/stm32f0xx_hal_pcd.c ****  *  @brief   Data transfers functions 
 274:Drivers/STM32F0xx_HAL_Driver/Src/stm32f0xx_hal_pcd.c ****  *
 275:Drivers/STM32F0xx_HAL_Driver/Src/stm32f0xx_hal_pcd.c **** @verbatim   
 276:Drivers/STM32F0xx_HAL_Driver/Src/stm32f0xx_hal_pcd.c ****  ===============================================================================
 277:Drivers/STM32F0xx_HAL_Driver/Src/stm32f0xx_hal_pcd.c ****                       ##### IO operation functions #####
 278:Drivers/STM32F0xx_HAL_Driver/Src/stm32f0xx_hal_pcd.c ****  ===============================================================================  
 279:Drivers/STM32F0xx_HAL_Driver/Src/stm32f0xx_hal_pcd.c ****     [..]
 280:Drivers/STM32F0xx_HAL_Driver/Src/stm32f0xx_hal_pcd.c ****     This subsection provides a set of functions allowing to manage the PCD data 
 281:Drivers/STM32F0xx_HAL_Driver/Src/stm32f0xx_hal_pcd.c ****     transfers.
 282:Drivers/STM32F0xx_HAL_Driver/Src/stm32f0xx_hal_pcd.c **** 
 283:Drivers/STM32F0xx_HAL_Driver/Src/stm32f0xx_hal_pcd.c **** @endverbatim
 284:Drivers/STM32F0xx_HAL_Driver/Src/stm32f0xx_hal_pcd.c ****   * @{
 285:Drivers/STM32F0xx_HAL_Driver/Src/stm32f0xx_hal_pcd.c ****   */
 286:Drivers/STM32F0xx_HAL_Driver/Src/stm32f0xx_hal_pcd.c ****   
 287:Drivers/STM32F0xx_HAL_Driver/Src/stm32f0xx_hal_pcd.c **** /**
 288:Drivers/STM32F0xx_HAL_Driver/Src/stm32f0xx_hal_pcd.c ****   * @brief  Start the USB device.
 289:Drivers/STM32F0xx_HAL_Driver/Src/stm32f0xx_hal_pcd.c ****   * @param  hpcd: PCD handle
 290:Drivers/STM32F0xx_HAL_Driver/Src/stm32f0xx_hal_pcd.c ****   * @retval HAL status
 291:Drivers/STM32F0xx_HAL_Driver/Src/stm32f0xx_hal_pcd.c ****   */
 292:Drivers/STM32F0xx_HAL_Driver/Src/stm32f0xx_hal_pcd.c **** HAL_StatusTypeDef HAL_PCD_Start(PCD_HandleTypeDef *hpcd)
 293:Drivers/STM32F0xx_HAL_Driver/Src/stm32f0xx_hal_pcd.c **** { 
 228              		.loc 1 293 0
 229              		.cfi_startproc
 230              	.LVL15:
 294:Drivers/STM32F0xx_HAL_Driver/Src/stm32f0xx_hal_pcd.c ****   /* Enabling DP Pull-Down bit to Connect internal pull-up on USB DP line */
 295:Drivers/STM32F0xx_HAL_Driver/Src/stm32f0xx_hal_pcd.c ****   hpcd->Instance->BCDR |= USB_BCDR_DPPU;
 231              		.loc 1 295 0
 232 0000 0268     		ldr	r2, [r0]
 233 0002 5823     		mov	r3, #88
 234 0004 D05A     		ldrh	r0, [r2, r3]
 235              	.LVL16:
 236 0006 8021     		mov	r1, #128
 237 0008 0902     		lsl	r1, r1, #8
 238 000a 0143     		orr	r1, r0
 239 000c D152     		strh	r1, [r2, r3]
 296:Drivers/STM32F0xx_HAL_Driver/Src/stm32f0xx_hal_pcd.c ****   
 297:Drivers/STM32F0xx_HAL_Driver/Src/stm32f0xx_hal_pcd.c ****   return HAL_OK;
 298:Drivers/STM32F0xx_HAL_Driver/Src/stm32f0xx_hal_pcd.c **** }
 240              		.loc 1 298 0
 241 000e 0020     		mov	r0, #0
 242              		@ sp needed
ARM GAS  /tmp/ccBeNIig.s 			page 11


 243 0010 7047     		bx	lr
 244              		.cfi_endproc
 245              	.LFE38:
 247 0012 C046     		.section	.text.HAL_PCD_Stop,"ax",%progbits
 248              		.align	2
 249              		.global	HAL_PCD_Stop
 250              		.code	16
 251              		.thumb_func
 253              	HAL_PCD_Stop:
 254              	.LFB39:
 299:Drivers/STM32F0xx_HAL_Driver/Src/stm32f0xx_hal_pcd.c **** 
 300:Drivers/STM32F0xx_HAL_Driver/Src/stm32f0xx_hal_pcd.c **** /**
 301:Drivers/STM32F0xx_HAL_Driver/Src/stm32f0xx_hal_pcd.c ****   * @brief  Stop the USB device.
 302:Drivers/STM32F0xx_HAL_Driver/Src/stm32f0xx_hal_pcd.c ****   * @param  hpcd: PCD handle
 303:Drivers/STM32F0xx_HAL_Driver/Src/stm32f0xx_hal_pcd.c ****   * @retval HAL status
 304:Drivers/STM32F0xx_HAL_Driver/Src/stm32f0xx_hal_pcd.c ****   */
 305:Drivers/STM32F0xx_HAL_Driver/Src/stm32f0xx_hal_pcd.c **** HAL_StatusTypeDef HAL_PCD_Stop(PCD_HandleTypeDef *hpcd)
 306:Drivers/STM32F0xx_HAL_Driver/Src/stm32f0xx_hal_pcd.c **** { 
 255              		.loc 1 306 0
 256              		.cfi_startproc
 257              	.LVL17:
 258 0000 10B5     		push	{r4, lr}
 259              	.LCFI1:
 260              		.cfi_def_cfa_offset 8
 261              		.cfi_offset 4, -8
 262              		.cfi_offset 14, -4
 307:Drivers/STM32F0xx_HAL_Driver/Src/stm32f0xx_hal_pcd.c ****   __HAL_LOCK(hpcd); 
 263              		.loc 1 307 0
 264 0002 F423     		mov	r3, #244
 265 0004 5B00     		lsl	r3, r3, #1
 266 0006 C35C     		ldrb	r3, [r0, r3]
 267 0008 012B     		cmp	r3, #1
 268 000a 10D0     		beq	.L16
 308:Drivers/STM32F0xx_HAL_Driver/Src/stm32f0xx_hal_pcd.c ****   
 309:Drivers/STM32F0xx_HAL_Driver/Src/stm32f0xx_hal_pcd.c ****     /* disable all interrupts and force USB reset */
 310:Drivers/STM32F0xx_HAL_Driver/Src/stm32f0xx_hal_pcd.c ****   hpcd->Instance->CNTR = USB_CNTR_FRES;
 269              		.loc 1 310 0 discriminator 2
 270 000c 4023     		mov	r3, #64
 271 000e 0122     		mov	r2, #1
 272 0010 0168     		ldr	r1, [r0]
 273 0012 CA52     		strh	r2, [r1, r3]
 311:Drivers/STM32F0xx_HAL_Driver/Src/stm32f0xx_hal_pcd.c ****   
 312:Drivers/STM32F0xx_HAL_Driver/Src/stm32f0xx_hal_pcd.c ****   /* clear interrupt status register */
 313:Drivers/STM32F0xx_HAL_Driver/Src/stm32f0xx_hal_pcd.c ****   hpcd->Instance->ISTR = 0;
 274              		.loc 1 313 0 discriminator 2
 275 0014 0021     		mov	r1, #0
 276 0016 4422     		mov	r2, #68
 277 0018 0468     		ldr	r4, [r0]
 278 001a A152     		strh	r1, [r4, r2]
 314:Drivers/STM32F0xx_HAL_Driver/Src/stm32f0xx_hal_pcd.c ****   
 315:Drivers/STM32F0xx_HAL_Driver/Src/stm32f0xx_hal_pcd.c ****   /* switch-off device */
 316:Drivers/STM32F0xx_HAL_Driver/Src/stm32f0xx_hal_pcd.c ****   hpcd->Instance->CNTR = (USB_CNTR_FRES | USB_CNTR_PDWN);
 279              		.loc 1 316 0 discriminator 2
 280 001c 0322     		mov	r2, #3
 281 001e 0168     		ldr	r1, [r0]
 282 0020 CA52     		strh	r2, [r1, r3]
 317:Drivers/STM32F0xx_HAL_Driver/Src/stm32f0xx_hal_pcd.c ****   
ARM GAS  /tmp/ccBeNIig.s 			page 12


 318:Drivers/STM32F0xx_HAL_Driver/Src/stm32f0xx_hal_pcd.c ****   __HAL_UNLOCK(hpcd); 
 283              		.loc 1 318 0 discriminator 2
 284 0022 0022     		mov	r2, #0
 285 0024 F423     		mov	r3, #244
 286 0026 5B00     		lsl	r3, r3, #1
 287 0028 C254     		strb	r2, [r0, r3]
 319:Drivers/STM32F0xx_HAL_Driver/Src/stm32f0xx_hal_pcd.c ****   return HAL_OK;
 288              		.loc 1 319 0 discriminator 2
 289 002a 0020     		mov	r0, #0
 290              	.LVL18:
 291 002c 00E0     		b	.L15
 292              	.LVL19:
 293              	.L16:
 307:Drivers/STM32F0xx_HAL_Driver/Src/stm32f0xx_hal_pcd.c ****   __HAL_LOCK(hpcd); 
 294              		.loc 1 307 0
 295 002e 0220     		mov	r0, #2
 296              	.LVL20:
 297              	.L15:
 320:Drivers/STM32F0xx_HAL_Driver/Src/stm32f0xx_hal_pcd.c **** }
 298              		.loc 1 320 0
 299              		@ sp needed
 300 0030 10BD     		pop	{r4, pc}
 301              		.cfi_endproc
 302              	.LFE39:
 304 0032 C046     		.section	.text.HAL_PCD_DeInit,"ax",%progbits
 305              		.align	2
 306              		.global	HAL_PCD_DeInit
 307              		.code	16
 308              		.thumb_func
 310              	HAL_PCD_DeInit:
 311              	.LFB35:
 218:Drivers/STM32F0xx_HAL_Driver/Src/stm32f0xx_hal_pcd.c **** {
 312              		.loc 1 218 0
 313              		.cfi_startproc
 314              	.LVL21:
 315 0000 38B5     		push	{r3, r4, r5, lr}
 316              	.LCFI2:
 317              		.cfi_def_cfa_offset 16
 318              		.cfi_offset 3, -16
 319              		.cfi_offset 4, -12
 320              		.cfi_offset 5, -8
 321              		.cfi_offset 14, -4
 322 0002 041E     		sub	r4, r0, #0
 220:Drivers/STM32F0xx_HAL_Driver/Src/stm32f0xx_hal_pcd.c ****   if(hpcd == NULL)
 323              		.loc 1 220 0
 324 0004 0CD0     		beq	.L19
 225:Drivers/STM32F0xx_HAL_Driver/Src/stm32f0xx_hal_pcd.c ****   hpcd->State = HAL_PCD_STATE_BUSY;
 325              		.loc 1 225 0
 326 0006 EA25     		mov	r5, #234
 327 0008 FF35     		add	r5, r5, #255
 328 000a 0323     		mov	r3, #3
 329 000c 4355     		strb	r3, [r0, r5]
 228:Drivers/STM32F0xx_HAL_Driver/Src/stm32f0xx_hal_pcd.c ****   HAL_PCD_Stop(hpcd);
 330              		.loc 1 228 0
 331 000e FFF7FEFF 		bl	HAL_PCD_Stop
 332              	.LVL22:
 231:Drivers/STM32F0xx_HAL_Driver/Src/stm32f0xx_hal_pcd.c ****   HAL_PCD_MspDeInit(hpcd);
ARM GAS  /tmp/ccBeNIig.s 			page 13


 333              		.loc 1 231 0
 334 0012 201C     		mov	r0, r4
 335 0014 FFF7FEFF 		bl	HAL_PCD_MspDeInit
 336              	.LVL23:
 233:Drivers/STM32F0xx_HAL_Driver/Src/stm32f0xx_hal_pcd.c ****   hpcd->State = HAL_PCD_STATE_RESET; 
 337              		.loc 1 233 0
 338 0018 0023     		mov	r3, #0
 339 001a 6355     		strb	r3, [r4, r5]
 235:Drivers/STM32F0xx_HAL_Driver/Src/stm32f0xx_hal_pcd.c ****   return HAL_OK;
 340              		.loc 1 235 0
 341 001c 0020     		mov	r0, #0
 342 001e 00E0     		b	.L18
 343              	.LVL24:
 344              	.L19:
 222:Drivers/STM32F0xx_HAL_Driver/Src/stm32f0xx_hal_pcd.c ****     return HAL_ERROR;
 345              		.loc 1 222 0
 346 0020 0120     		mov	r0, #1
 347              	.LVL25:
 348              	.L18:
 236:Drivers/STM32F0xx_HAL_Driver/Src/stm32f0xx_hal_pcd.c **** }
 349              		.loc 1 236 0
 350              		@ sp needed
 351              	.LVL26:
 352 0022 38BD     		pop	{r3, r4, r5, pc}
 353              		.cfi_endproc
 354              	.LFE35:
 356              		.section	.text.HAL_PCD_DataOutStageCallback,"ax",%progbits
 357              		.align	2
 358              		.weak	HAL_PCD_DataOutStageCallback
 359              		.code	16
 360              		.thumb_func
 362              	HAL_PCD_DataOutStageCallback:
 363              	.LFB41:
 321:Drivers/STM32F0xx_HAL_Driver/Src/stm32f0xx_hal_pcd.c **** 
 322:Drivers/STM32F0xx_HAL_Driver/Src/stm32f0xx_hal_pcd.c **** /**
 323:Drivers/STM32F0xx_HAL_Driver/Src/stm32f0xx_hal_pcd.c ****   * @brief  This function handles PCD interrupt request.
 324:Drivers/STM32F0xx_HAL_Driver/Src/stm32f0xx_hal_pcd.c ****   * @param  hpcd: PCD handle
 325:Drivers/STM32F0xx_HAL_Driver/Src/stm32f0xx_hal_pcd.c ****   * @retval HAL status
 326:Drivers/STM32F0xx_HAL_Driver/Src/stm32f0xx_hal_pcd.c ****   */
 327:Drivers/STM32F0xx_HAL_Driver/Src/stm32f0xx_hal_pcd.c **** void HAL_PCD_IRQHandler(PCD_HandleTypeDef *hpcd)
 328:Drivers/STM32F0xx_HAL_Driver/Src/stm32f0xx_hal_pcd.c **** {
 329:Drivers/STM32F0xx_HAL_Driver/Src/stm32f0xx_hal_pcd.c ****   uint32_t wInterrupt_Mask = 0U;
 330:Drivers/STM32F0xx_HAL_Driver/Src/stm32f0xx_hal_pcd.c ****   
 331:Drivers/STM32F0xx_HAL_Driver/Src/stm32f0xx_hal_pcd.c ****   if (__HAL_PCD_GET_FLAG (hpcd, USB_ISTR_CTR))
 332:Drivers/STM32F0xx_HAL_Driver/Src/stm32f0xx_hal_pcd.c ****   {
 333:Drivers/STM32F0xx_HAL_Driver/Src/stm32f0xx_hal_pcd.c ****     /* servicing of the endpoint correct transfer interrupt */
 334:Drivers/STM32F0xx_HAL_Driver/Src/stm32f0xx_hal_pcd.c ****     /* clear of the CTR flag into the sub */
 335:Drivers/STM32F0xx_HAL_Driver/Src/stm32f0xx_hal_pcd.c ****     PCD_EP_ISR_Handler(hpcd);
 336:Drivers/STM32F0xx_HAL_Driver/Src/stm32f0xx_hal_pcd.c ****   }
 337:Drivers/STM32F0xx_HAL_Driver/Src/stm32f0xx_hal_pcd.c **** 
 338:Drivers/STM32F0xx_HAL_Driver/Src/stm32f0xx_hal_pcd.c ****   if (__HAL_PCD_GET_FLAG (hpcd, USB_ISTR_RESET))
 339:Drivers/STM32F0xx_HAL_Driver/Src/stm32f0xx_hal_pcd.c ****   {
 340:Drivers/STM32F0xx_HAL_Driver/Src/stm32f0xx_hal_pcd.c ****     __HAL_PCD_CLEAR_FLAG(hpcd, USB_ISTR_RESET);
 341:Drivers/STM32F0xx_HAL_Driver/Src/stm32f0xx_hal_pcd.c ****     HAL_PCD_ResetCallback(hpcd);
 342:Drivers/STM32F0xx_HAL_Driver/Src/stm32f0xx_hal_pcd.c ****     HAL_PCD_SetAddress(hpcd, 0U);
 343:Drivers/STM32F0xx_HAL_Driver/Src/stm32f0xx_hal_pcd.c ****   }
 344:Drivers/STM32F0xx_HAL_Driver/Src/stm32f0xx_hal_pcd.c **** 
ARM GAS  /tmp/ccBeNIig.s 			page 14


 345:Drivers/STM32F0xx_HAL_Driver/Src/stm32f0xx_hal_pcd.c ****   if (__HAL_PCD_GET_FLAG (hpcd, USB_ISTR_PMAOVR))
 346:Drivers/STM32F0xx_HAL_Driver/Src/stm32f0xx_hal_pcd.c ****   {
 347:Drivers/STM32F0xx_HAL_Driver/Src/stm32f0xx_hal_pcd.c ****     __HAL_PCD_CLEAR_FLAG(hpcd, USB_ISTR_PMAOVR);    
 348:Drivers/STM32F0xx_HAL_Driver/Src/stm32f0xx_hal_pcd.c ****   }
 349:Drivers/STM32F0xx_HAL_Driver/Src/stm32f0xx_hal_pcd.c **** 
 350:Drivers/STM32F0xx_HAL_Driver/Src/stm32f0xx_hal_pcd.c ****   if (__HAL_PCD_GET_FLAG (hpcd, USB_ISTR_ERR))
 351:Drivers/STM32F0xx_HAL_Driver/Src/stm32f0xx_hal_pcd.c ****   {
 352:Drivers/STM32F0xx_HAL_Driver/Src/stm32f0xx_hal_pcd.c ****     __HAL_PCD_CLEAR_FLAG(hpcd, USB_ISTR_ERR); 
 353:Drivers/STM32F0xx_HAL_Driver/Src/stm32f0xx_hal_pcd.c ****   }
 354:Drivers/STM32F0xx_HAL_Driver/Src/stm32f0xx_hal_pcd.c **** 
 355:Drivers/STM32F0xx_HAL_Driver/Src/stm32f0xx_hal_pcd.c ****   if (__HAL_PCD_GET_FLAG (hpcd, USB_ISTR_WKUP))
 356:Drivers/STM32F0xx_HAL_Driver/Src/stm32f0xx_hal_pcd.c ****   {
 357:Drivers/STM32F0xx_HAL_Driver/Src/stm32f0xx_hal_pcd.c ****     
 358:Drivers/STM32F0xx_HAL_Driver/Src/stm32f0xx_hal_pcd.c ****     hpcd->Instance->CNTR &= (uint16_t)(~(USB_CNTR_LPMODE));
 359:Drivers/STM32F0xx_HAL_Driver/Src/stm32f0xx_hal_pcd.c **** 
 360:Drivers/STM32F0xx_HAL_Driver/Src/stm32f0xx_hal_pcd.c ****     /*set wInterrupt_Mask global variable*/
 361:Drivers/STM32F0xx_HAL_Driver/Src/stm32f0xx_hal_pcd.c ****     wInterrupt_Mask = USB_CNTR_CTRM  | USB_CNTR_WKUPM | USB_CNTR_SUSPM | USB_CNTR_ERRM \
 362:Drivers/STM32F0xx_HAL_Driver/Src/stm32f0xx_hal_pcd.c ****       | USB_CNTR_ESOFM | USB_CNTR_RESETM;
 363:Drivers/STM32F0xx_HAL_Driver/Src/stm32f0xx_hal_pcd.c ****     
 364:Drivers/STM32F0xx_HAL_Driver/Src/stm32f0xx_hal_pcd.c ****     /*Set interrupt mask*/
 365:Drivers/STM32F0xx_HAL_Driver/Src/stm32f0xx_hal_pcd.c ****     hpcd->Instance->CNTR = wInterrupt_Mask;
 366:Drivers/STM32F0xx_HAL_Driver/Src/stm32f0xx_hal_pcd.c ****     
 367:Drivers/STM32F0xx_HAL_Driver/Src/stm32f0xx_hal_pcd.c ****     HAL_PCD_ResumeCallback(hpcd);
 368:Drivers/STM32F0xx_HAL_Driver/Src/stm32f0xx_hal_pcd.c ****     
 369:Drivers/STM32F0xx_HAL_Driver/Src/stm32f0xx_hal_pcd.c ****     __HAL_PCD_CLEAR_FLAG(hpcd, USB_ISTR_WKUP);     
 370:Drivers/STM32F0xx_HAL_Driver/Src/stm32f0xx_hal_pcd.c ****   }
 371:Drivers/STM32F0xx_HAL_Driver/Src/stm32f0xx_hal_pcd.c **** 
 372:Drivers/STM32F0xx_HAL_Driver/Src/stm32f0xx_hal_pcd.c ****   if (__HAL_PCD_GET_FLAG (hpcd, USB_ISTR_SUSP))
 373:Drivers/STM32F0xx_HAL_Driver/Src/stm32f0xx_hal_pcd.c ****   {    
 374:Drivers/STM32F0xx_HAL_Driver/Src/stm32f0xx_hal_pcd.c ****     /* clear of the ISTR bit must be done after setting of CNTR_FSUSP */
 375:Drivers/STM32F0xx_HAL_Driver/Src/stm32f0xx_hal_pcd.c ****     __HAL_PCD_CLEAR_FLAG(hpcd, USB_ISTR_SUSP);  
 376:Drivers/STM32F0xx_HAL_Driver/Src/stm32f0xx_hal_pcd.c ****     
 377:Drivers/STM32F0xx_HAL_Driver/Src/stm32f0xx_hal_pcd.c ****     /* Force low-power mode in the macrocell */
 378:Drivers/STM32F0xx_HAL_Driver/Src/stm32f0xx_hal_pcd.c ****     hpcd->Instance->CNTR |= USB_CNTR_FSUSP;
 379:Drivers/STM32F0xx_HAL_Driver/Src/stm32f0xx_hal_pcd.c ****     hpcd->Instance->CNTR |= USB_CNTR_LPMODE;
 380:Drivers/STM32F0xx_HAL_Driver/Src/stm32f0xx_hal_pcd.c **** 
 381:Drivers/STM32F0xx_HAL_Driver/Src/stm32f0xx_hal_pcd.c ****     if (__HAL_PCD_GET_FLAG (hpcd, USB_ISTR_WKUP) == 0)
 382:Drivers/STM32F0xx_HAL_Driver/Src/stm32f0xx_hal_pcd.c ****     {
 383:Drivers/STM32F0xx_HAL_Driver/Src/stm32f0xx_hal_pcd.c ****       HAL_PCD_SuspendCallback(hpcd);
 384:Drivers/STM32F0xx_HAL_Driver/Src/stm32f0xx_hal_pcd.c ****     }
 385:Drivers/STM32F0xx_HAL_Driver/Src/stm32f0xx_hal_pcd.c ****   }
 386:Drivers/STM32F0xx_HAL_Driver/Src/stm32f0xx_hal_pcd.c **** 
 387:Drivers/STM32F0xx_HAL_Driver/Src/stm32f0xx_hal_pcd.c ****   if (__HAL_PCD_GET_FLAG (hpcd, USB_ISTR_SOF))
 388:Drivers/STM32F0xx_HAL_Driver/Src/stm32f0xx_hal_pcd.c ****   {
 389:Drivers/STM32F0xx_HAL_Driver/Src/stm32f0xx_hal_pcd.c ****     __HAL_PCD_CLEAR_FLAG(hpcd, USB_ISTR_SOF); 
 390:Drivers/STM32F0xx_HAL_Driver/Src/stm32f0xx_hal_pcd.c ****     HAL_PCD_SOFCallback(hpcd);
 391:Drivers/STM32F0xx_HAL_Driver/Src/stm32f0xx_hal_pcd.c ****   }
 392:Drivers/STM32F0xx_HAL_Driver/Src/stm32f0xx_hal_pcd.c **** 
 393:Drivers/STM32F0xx_HAL_Driver/Src/stm32f0xx_hal_pcd.c ****   if (__HAL_PCD_GET_FLAG (hpcd, USB_ISTR_ESOF))
 394:Drivers/STM32F0xx_HAL_Driver/Src/stm32f0xx_hal_pcd.c ****   {
 395:Drivers/STM32F0xx_HAL_Driver/Src/stm32f0xx_hal_pcd.c ****     /* clear ESOF flag in ISTR */
 396:Drivers/STM32F0xx_HAL_Driver/Src/stm32f0xx_hal_pcd.c ****     __HAL_PCD_CLEAR_FLAG(hpcd, USB_ISTR_ESOF); 
 397:Drivers/STM32F0xx_HAL_Driver/Src/stm32f0xx_hal_pcd.c ****   }
 398:Drivers/STM32F0xx_HAL_Driver/Src/stm32f0xx_hal_pcd.c **** }
 399:Drivers/STM32F0xx_HAL_Driver/Src/stm32f0xx_hal_pcd.c **** 
 400:Drivers/STM32F0xx_HAL_Driver/Src/stm32f0xx_hal_pcd.c **** /**
 401:Drivers/STM32F0xx_HAL_Driver/Src/stm32f0xx_hal_pcd.c ****   * @brief  Data out stage callbacks
ARM GAS  /tmp/ccBeNIig.s 			page 15


 402:Drivers/STM32F0xx_HAL_Driver/Src/stm32f0xx_hal_pcd.c ****   * @param  hpcd: PCD handle
 403:Drivers/STM32F0xx_HAL_Driver/Src/stm32f0xx_hal_pcd.c ****   * @param  epnum: endpoint number
 404:Drivers/STM32F0xx_HAL_Driver/Src/stm32f0xx_hal_pcd.c ****   * @retval None
 405:Drivers/STM32F0xx_HAL_Driver/Src/stm32f0xx_hal_pcd.c ****   */
 406:Drivers/STM32F0xx_HAL_Driver/Src/stm32f0xx_hal_pcd.c ****  __weak void HAL_PCD_DataOutStageCallback(PCD_HandleTypeDef *hpcd, uint8_t epnum)
 407:Drivers/STM32F0xx_HAL_Driver/Src/stm32f0xx_hal_pcd.c **** {
 364              		.loc 1 407 0
 365              		.cfi_startproc
 366              	.LVL27:
 408:Drivers/STM32F0xx_HAL_Driver/Src/stm32f0xx_hal_pcd.c ****   /* Prevent unused argument(s) compilation warning */
 409:Drivers/STM32F0xx_HAL_Driver/Src/stm32f0xx_hal_pcd.c ****   UNUSED(hpcd);
 410:Drivers/STM32F0xx_HAL_Driver/Src/stm32f0xx_hal_pcd.c ****   UNUSED(epnum);
 411:Drivers/STM32F0xx_HAL_Driver/Src/stm32f0xx_hal_pcd.c **** 
 412:Drivers/STM32F0xx_HAL_Driver/Src/stm32f0xx_hal_pcd.c ****   /* NOTE : This function Should not be modified, when the callback is needed,
 413:Drivers/STM32F0xx_HAL_Driver/Src/stm32f0xx_hal_pcd.c ****             the HAL_PCD_DataOutStageCallback could be implemented in the user file
 414:Drivers/STM32F0xx_HAL_Driver/Src/stm32f0xx_hal_pcd.c ****    */ 
 415:Drivers/STM32F0xx_HAL_Driver/Src/stm32f0xx_hal_pcd.c **** }
 367              		.loc 1 415 0
 368              		@ sp needed
 369 0000 7047     		bx	lr
 370              		.cfi_endproc
 371              	.LFE41:
 373 0002 C046     		.section	.text.HAL_PCD_DataInStageCallback,"ax",%progbits
 374              		.align	2
 375              		.weak	HAL_PCD_DataInStageCallback
 376              		.code	16
 377              		.thumb_func
 379              	HAL_PCD_DataInStageCallback:
 380              	.LFB42:
 416:Drivers/STM32F0xx_HAL_Driver/Src/stm32f0xx_hal_pcd.c **** 
 417:Drivers/STM32F0xx_HAL_Driver/Src/stm32f0xx_hal_pcd.c **** /**
 418:Drivers/STM32F0xx_HAL_Driver/Src/stm32f0xx_hal_pcd.c ****   * @brief  Data IN stage callbacks
 419:Drivers/STM32F0xx_HAL_Driver/Src/stm32f0xx_hal_pcd.c ****   * @param  hpcd: PCD handle
 420:Drivers/STM32F0xx_HAL_Driver/Src/stm32f0xx_hal_pcd.c ****   * @param  epnum: endpoint number
 421:Drivers/STM32F0xx_HAL_Driver/Src/stm32f0xx_hal_pcd.c ****   * @retval None
 422:Drivers/STM32F0xx_HAL_Driver/Src/stm32f0xx_hal_pcd.c ****   */
 423:Drivers/STM32F0xx_HAL_Driver/Src/stm32f0xx_hal_pcd.c ****  __weak void HAL_PCD_DataInStageCallback(PCD_HandleTypeDef *hpcd, uint8_t epnum)
 424:Drivers/STM32F0xx_HAL_Driver/Src/stm32f0xx_hal_pcd.c **** {
 381              		.loc 1 424 0
 382              		.cfi_startproc
 383              	.LVL28:
 425:Drivers/STM32F0xx_HAL_Driver/Src/stm32f0xx_hal_pcd.c ****   /* Prevent unused argument(s) compilation warning */
 426:Drivers/STM32F0xx_HAL_Driver/Src/stm32f0xx_hal_pcd.c ****   UNUSED(hpcd);
 427:Drivers/STM32F0xx_HAL_Driver/Src/stm32f0xx_hal_pcd.c ****   UNUSED(epnum);
 428:Drivers/STM32F0xx_HAL_Driver/Src/stm32f0xx_hal_pcd.c **** 
 429:Drivers/STM32F0xx_HAL_Driver/Src/stm32f0xx_hal_pcd.c ****   /* NOTE : This function Should not be modified, when the callback is needed,
 430:Drivers/STM32F0xx_HAL_Driver/Src/stm32f0xx_hal_pcd.c ****             the HAL_PCD_DataInStageCallback could be implemented in the user file
 431:Drivers/STM32F0xx_HAL_Driver/Src/stm32f0xx_hal_pcd.c ****    */ 
 432:Drivers/STM32F0xx_HAL_Driver/Src/stm32f0xx_hal_pcd.c **** }
 384              		.loc 1 432 0
 385              		@ sp needed
 386 0000 7047     		bx	lr
 387              		.cfi_endproc
 388              	.LFE42:
 390 0002 C046     		.section	.text.HAL_PCD_SetupStageCallback,"ax",%progbits
 391              		.align	2
 392              		.weak	HAL_PCD_SetupStageCallback
ARM GAS  /tmp/ccBeNIig.s 			page 16


 393              		.code	16
 394              		.thumb_func
 396              	HAL_PCD_SetupStageCallback:
 397              	.LFB43:
 433:Drivers/STM32F0xx_HAL_Driver/Src/stm32f0xx_hal_pcd.c **** /**
 434:Drivers/STM32F0xx_HAL_Driver/Src/stm32f0xx_hal_pcd.c ****   * @brief  Setup stage callback
 435:Drivers/STM32F0xx_HAL_Driver/Src/stm32f0xx_hal_pcd.c ****   * @param  hpcd: PCD handle
 436:Drivers/STM32F0xx_HAL_Driver/Src/stm32f0xx_hal_pcd.c ****   * @retval None
 437:Drivers/STM32F0xx_HAL_Driver/Src/stm32f0xx_hal_pcd.c ****   */
 438:Drivers/STM32F0xx_HAL_Driver/Src/stm32f0xx_hal_pcd.c ****  __weak void HAL_PCD_SetupStageCallback(PCD_HandleTypeDef *hpcd)
 439:Drivers/STM32F0xx_HAL_Driver/Src/stm32f0xx_hal_pcd.c **** {
 398              		.loc 1 439 0
 399              		.cfi_startproc
 400              	.LVL29:
 440:Drivers/STM32F0xx_HAL_Driver/Src/stm32f0xx_hal_pcd.c ****   /* Prevent unused argument(s) compilation warning */
 441:Drivers/STM32F0xx_HAL_Driver/Src/stm32f0xx_hal_pcd.c ****   UNUSED(hpcd);
 442:Drivers/STM32F0xx_HAL_Driver/Src/stm32f0xx_hal_pcd.c **** 
 443:Drivers/STM32F0xx_HAL_Driver/Src/stm32f0xx_hal_pcd.c ****   /* NOTE : This function Should not be modified, when the callback is needed,
 444:Drivers/STM32F0xx_HAL_Driver/Src/stm32f0xx_hal_pcd.c ****             the HAL_PCD_SetupStageCallback could be implemented in the user file
 445:Drivers/STM32F0xx_HAL_Driver/Src/stm32f0xx_hal_pcd.c ****    */ 
 446:Drivers/STM32F0xx_HAL_Driver/Src/stm32f0xx_hal_pcd.c **** }
 401              		.loc 1 446 0
 402              		@ sp needed
 403 0000 7047     		bx	lr
 404              		.cfi_endproc
 405              	.LFE43:
 407 0002 C046     		.section	.text.HAL_PCD_SOFCallback,"ax",%progbits
 408              		.align	2
 409              		.weak	HAL_PCD_SOFCallback
 410              		.code	16
 411              		.thumb_func
 413              	HAL_PCD_SOFCallback:
 414              	.LFB44:
 447:Drivers/STM32F0xx_HAL_Driver/Src/stm32f0xx_hal_pcd.c **** 
 448:Drivers/STM32F0xx_HAL_Driver/Src/stm32f0xx_hal_pcd.c **** /**
 449:Drivers/STM32F0xx_HAL_Driver/Src/stm32f0xx_hal_pcd.c ****   * @brief  USB Start Of Frame callbacks
 450:Drivers/STM32F0xx_HAL_Driver/Src/stm32f0xx_hal_pcd.c ****   * @param  hpcd: PCD handle
 451:Drivers/STM32F0xx_HAL_Driver/Src/stm32f0xx_hal_pcd.c ****   * @retval None
 452:Drivers/STM32F0xx_HAL_Driver/Src/stm32f0xx_hal_pcd.c ****   */
 453:Drivers/STM32F0xx_HAL_Driver/Src/stm32f0xx_hal_pcd.c ****  __weak void HAL_PCD_SOFCallback(PCD_HandleTypeDef *hpcd)
 454:Drivers/STM32F0xx_HAL_Driver/Src/stm32f0xx_hal_pcd.c **** {
 415              		.loc 1 454 0
 416              		.cfi_startproc
 417              	.LVL30:
 455:Drivers/STM32F0xx_HAL_Driver/Src/stm32f0xx_hal_pcd.c ****   /* Prevent unused argument(s) compilation warning */
 456:Drivers/STM32F0xx_HAL_Driver/Src/stm32f0xx_hal_pcd.c ****   UNUSED(hpcd);
 457:Drivers/STM32F0xx_HAL_Driver/Src/stm32f0xx_hal_pcd.c **** 
 458:Drivers/STM32F0xx_HAL_Driver/Src/stm32f0xx_hal_pcd.c ****   /* NOTE : This function Should not be modified, when the callback is needed,
 459:Drivers/STM32F0xx_HAL_Driver/Src/stm32f0xx_hal_pcd.c ****             the HAL_PCD_SOFCallback could be implemented in the user file
 460:Drivers/STM32F0xx_HAL_Driver/Src/stm32f0xx_hal_pcd.c ****    */ 
 461:Drivers/STM32F0xx_HAL_Driver/Src/stm32f0xx_hal_pcd.c **** }
 418              		.loc 1 461 0
 419              		@ sp needed
 420 0000 7047     		bx	lr
 421              		.cfi_endproc
 422              	.LFE44:
 424 0002 C046     		.section	.text.HAL_PCD_ResetCallback,"ax",%progbits
ARM GAS  /tmp/ccBeNIig.s 			page 17


 425              		.align	2
 426              		.weak	HAL_PCD_ResetCallback
 427              		.code	16
 428              		.thumb_func
 430              	HAL_PCD_ResetCallback:
 431              	.LFB45:
 462:Drivers/STM32F0xx_HAL_Driver/Src/stm32f0xx_hal_pcd.c **** 
 463:Drivers/STM32F0xx_HAL_Driver/Src/stm32f0xx_hal_pcd.c **** /**
 464:Drivers/STM32F0xx_HAL_Driver/Src/stm32f0xx_hal_pcd.c ****   * @brief  USB Reset callbacks
 465:Drivers/STM32F0xx_HAL_Driver/Src/stm32f0xx_hal_pcd.c ****   * @param  hpcd: PCD handle
 466:Drivers/STM32F0xx_HAL_Driver/Src/stm32f0xx_hal_pcd.c ****   * @retval None
 467:Drivers/STM32F0xx_HAL_Driver/Src/stm32f0xx_hal_pcd.c ****   */
 468:Drivers/STM32F0xx_HAL_Driver/Src/stm32f0xx_hal_pcd.c ****  __weak void HAL_PCD_ResetCallback(PCD_HandleTypeDef *hpcd)
 469:Drivers/STM32F0xx_HAL_Driver/Src/stm32f0xx_hal_pcd.c **** {
 432              		.loc 1 469 0
 433              		.cfi_startproc
 434              	.LVL31:
 470:Drivers/STM32F0xx_HAL_Driver/Src/stm32f0xx_hal_pcd.c ****   /* Prevent unused argument(s) compilation warning */
 471:Drivers/STM32F0xx_HAL_Driver/Src/stm32f0xx_hal_pcd.c ****   UNUSED(hpcd);
 472:Drivers/STM32F0xx_HAL_Driver/Src/stm32f0xx_hal_pcd.c **** 
 473:Drivers/STM32F0xx_HAL_Driver/Src/stm32f0xx_hal_pcd.c ****   /* NOTE : This function Should not be modified, when the callback is needed,
 474:Drivers/STM32F0xx_HAL_Driver/Src/stm32f0xx_hal_pcd.c ****             the HAL_PCD_ResetCallback could be implemented in the user file
 475:Drivers/STM32F0xx_HAL_Driver/Src/stm32f0xx_hal_pcd.c ****    */ 
 476:Drivers/STM32F0xx_HAL_Driver/Src/stm32f0xx_hal_pcd.c **** }
 435              		.loc 1 476 0
 436              		@ sp needed
 437 0000 7047     		bx	lr
 438              		.cfi_endproc
 439              	.LFE45:
 441 0002 C046     		.section	.text.HAL_PCD_SuspendCallback,"ax",%progbits
 442              		.align	2
 443              		.weak	HAL_PCD_SuspendCallback
 444              		.code	16
 445              		.thumb_func
 447              	HAL_PCD_SuspendCallback:
 448              	.LFB46:
 477:Drivers/STM32F0xx_HAL_Driver/Src/stm32f0xx_hal_pcd.c **** 
 478:Drivers/STM32F0xx_HAL_Driver/Src/stm32f0xx_hal_pcd.c **** /**
 479:Drivers/STM32F0xx_HAL_Driver/Src/stm32f0xx_hal_pcd.c ****   * @brief  Suspend event callbacks
 480:Drivers/STM32F0xx_HAL_Driver/Src/stm32f0xx_hal_pcd.c ****   * @param  hpcd: PCD handle
 481:Drivers/STM32F0xx_HAL_Driver/Src/stm32f0xx_hal_pcd.c ****   * @retval None
 482:Drivers/STM32F0xx_HAL_Driver/Src/stm32f0xx_hal_pcd.c ****   */
 483:Drivers/STM32F0xx_HAL_Driver/Src/stm32f0xx_hal_pcd.c ****  __weak void HAL_PCD_SuspendCallback(PCD_HandleTypeDef *hpcd)
 484:Drivers/STM32F0xx_HAL_Driver/Src/stm32f0xx_hal_pcd.c **** {
 449              		.loc 1 484 0
 450              		.cfi_startproc
 451              	.LVL32:
 485:Drivers/STM32F0xx_HAL_Driver/Src/stm32f0xx_hal_pcd.c ****   /* Prevent unused argument(s) compilation warning */
 486:Drivers/STM32F0xx_HAL_Driver/Src/stm32f0xx_hal_pcd.c ****   UNUSED(hpcd);
 487:Drivers/STM32F0xx_HAL_Driver/Src/stm32f0xx_hal_pcd.c **** 
 488:Drivers/STM32F0xx_HAL_Driver/Src/stm32f0xx_hal_pcd.c ****   /* NOTE : This function Should not be modified, when the callback is needed,
 489:Drivers/STM32F0xx_HAL_Driver/Src/stm32f0xx_hal_pcd.c ****             the HAL_PCD_SuspendCallback could be implemented in the user file
 490:Drivers/STM32F0xx_HAL_Driver/Src/stm32f0xx_hal_pcd.c ****    */ 
 491:Drivers/STM32F0xx_HAL_Driver/Src/stm32f0xx_hal_pcd.c **** }
 452              		.loc 1 491 0
 453              		@ sp needed
 454 0000 7047     		bx	lr
ARM GAS  /tmp/ccBeNIig.s 			page 18


 455              		.cfi_endproc
 456              	.LFE46:
 458 0002 C046     		.section	.text.HAL_PCD_ResumeCallback,"ax",%progbits
 459              		.align	2
 460              		.weak	HAL_PCD_ResumeCallback
 461              		.code	16
 462              		.thumb_func
 464              	HAL_PCD_ResumeCallback:
 465              	.LFB47:
 492:Drivers/STM32F0xx_HAL_Driver/Src/stm32f0xx_hal_pcd.c **** 
 493:Drivers/STM32F0xx_HAL_Driver/Src/stm32f0xx_hal_pcd.c **** /**
 494:Drivers/STM32F0xx_HAL_Driver/Src/stm32f0xx_hal_pcd.c ****   * @brief  Resume event callbacks
 495:Drivers/STM32F0xx_HAL_Driver/Src/stm32f0xx_hal_pcd.c ****   * @param  hpcd: PCD handle
 496:Drivers/STM32F0xx_HAL_Driver/Src/stm32f0xx_hal_pcd.c ****   * @retval None
 497:Drivers/STM32F0xx_HAL_Driver/Src/stm32f0xx_hal_pcd.c ****   */
 498:Drivers/STM32F0xx_HAL_Driver/Src/stm32f0xx_hal_pcd.c ****  __weak void HAL_PCD_ResumeCallback(PCD_HandleTypeDef *hpcd)
 499:Drivers/STM32F0xx_HAL_Driver/Src/stm32f0xx_hal_pcd.c **** {
 466              		.loc 1 499 0
 467              		.cfi_startproc
 468              	.LVL33:
 500:Drivers/STM32F0xx_HAL_Driver/Src/stm32f0xx_hal_pcd.c ****   /* Prevent unused argument(s) compilation warning */
 501:Drivers/STM32F0xx_HAL_Driver/Src/stm32f0xx_hal_pcd.c ****   UNUSED(hpcd);
 502:Drivers/STM32F0xx_HAL_Driver/Src/stm32f0xx_hal_pcd.c **** 
 503:Drivers/STM32F0xx_HAL_Driver/Src/stm32f0xx_hal_pcd.c ****   /* NOTE : This function Should not be modified, when the callback is needed,
 504:Drivers/STM32F0xx_HAL_Driver/Src/stm32f0xx_hal_pcd.c ****             the HAL_PCD_ResumeCallback could be implemented in the user file
 505:Drivers/STM32F0xx_HAL_Driver/Src/stm32f0xx_hal_pcd.c ****    */ 
 506:Drivers/STM32F0xx_HAL_Driver/Src/stm32f0xx_hal_pcd.c **** }
 469              		.loc 1 506 0
 470              		@ sp needed
 471 0000 7047     		bx	lr
 472              		.cfi_endproc
 473              	.LFE47:
 475 0002 C046     		.section	.text.HAL_PCD_ISOOUTIncompleteCallback,"ax",%progbits
 476              		.align	2
 477              		.weak	HAL_PCD_ISOOUTIncompleteCallback
 478              		.code	16
 479              		.thumb_func
 481              	HAL_PCD_ISOOUTIncompleteCallback:
 482              	.LFB48:
 507:Drivers/STM32F0xx_HAL_Driver/Src/stm32f0xx_hal_pcd.c **** 
 508:Drivers/STM32F0xx_HAL_Driver/Src/stm32f0xx_hal_pcd.c **** /**
 509:Drivers/STM32F0xx_HAL_Driver/Src/stm32f0xx_hal_pcd.c ****   * @brief  Incomplete ISO OUT callbacks
 510:Drivers/STM32F0xx_HAL_Driver/Src/stm32f0xx_hal_pcd.c ****   * @param  hpcd: PCD handle
 511:Drivers/STM32F0xx_HAL_Driver/Src/stm32f0xx_hal_pcd.c ****   * @param  epnum: endpoint number
 512:Drivers/STM32F0xx_HAL_Driver/Src/stm32f0xx_hal_pcd.c ****   * @retval None
 513:Drivers/STM32F0xx_HAL_Driver/Src/stm32f0xx_hal_pcd.c ****   */
 514:Drivers/STM32F0xx_HAL_Driver/Src/stm32f0xx_hal_pcd.c ****  __weak void HAL_PCD_ISOOUTIncompleteCallback(PCD_HandleTypeDef *hpcd, uint8_t epnum)
 515:Drivers/STM32F0xx_HAL_Driver/Src/stm32f0xx_hal_pcd.c **** {
 483              		.loc 1 515 0
 484              		.cfi_startproc
 485              	.LVL34:
 516:Drivers/STM32F0xx_HAL_Driver/Src/stm32f0xx_hal_pcd.c ****   /* Prevent unused argument(s) compilation warning */
 517:Drivers/STM32F0xx_HAL_Driver/Src/stm32f0xx_hal_pcd.c ****   UNUSED(hpcd);
 518:Drivers/STM32F0xx_HAL_Driver/Src/stm32f0xx_hal_pcd.c ****   UNUSED(epnum);
 519:Drivers/STM32F0xx_HAL_Driver/Src/stm32f0xx_hal_pcd.c **** 
 520:Drivers/STM32F0xx_HAL_Driver/Src/stm32f0xx_hal_pcd.c ****   /* NOTE : This function Should not be modified, when the callback is needed,
 521:Drivers/STM32F0xx_HAL_Driver/Src/stm32f0xx_hal_pcd.c ****             the HAL_PCD_ISOOUTIncompleteCallback could be implemented in the user file
ARM GAS  /tmp/ccBeNIig.s 			page 19


 522:Drivers/STM32F0xx_HAL_Driver/Src/stm32f0xx_hal_pcd.c ****    */ 
 523:Drivers/STM32F0xx_HAL_Driver/Src/stm32f0xx_hal_pcd.c **** }
 486              		.loc 1 523 0
 487              		@ sp needed
 488 0000 7047     		bx	lr
 489              		.cfi_endproc
 490              	.LFE48:
 492 0002 C046     		.section	.text.HAL_PCD_ISOINIncompleteCallback,"ax",%progbits
 493              		.align	2
 494              		.weak	HAL_PCD_ISOINIncompleteCallback
 495              		.code	16
 496              		.thumb_func
 498              	HAL_PCD_ISOINIncompleteCallback:
 499              	.LFB49:
 524:Drivers/STM32F0xx_HAL_Driver/Src/stm32f0xx_hal_pcd.c **** 
 525:Drivers/STM32F0xx_HAL_Driver/Src/stm32f0xx_hal_pcd.c **** /**
 526:Drivers/STM32F0xx_HAL_Driver/Src/stm32f0xx_hal_pcd.c ****   * @brief  Incomplete ISO IN  callbacks
 527:Drivers/STM32F0xx_HAL_Driver/Src/stm32f0xx_hal_pcd.c ****   * @param  hpcd: PCD handle
 528:Drivers/STM32F0xx_HAL_Driver/Src/stm32f0xx_hal_pcd.c ****   * @param  epnum: endpoint number
 529:Drivers/STM32F0xx_HAL_Driver/Src/stm32f0xx_hal_pcd.c ****   * @retval None
 530:Drivers/STM32F0xx_HAL_Driver/Src/stm32f0xx_hal_pcd.c ****   */
 531:Drivers/STM32F0xx_HAL_Driver/Src/stm32f0xx_hal_pcd.c ****  __weak void HAL_PCD_ISOINIncompleteCallback(PCD_HandleTypeDef *hpcd, uint8_t epnum)
 532:Drivers/STM32F0xx_HAL_Driver/Src/stm32f0xx_hal_pcd.c **** {
 500              		.loc 1 532 0
 501              		.cfi_startproc
 502              	.LVL35:
 533:Drivers/STM32F0xx_HAL_Driver/Src/stm32f0xx_hal_pcd.c ****   /* Prevent unused argument(s) compilation warning */
 534:Drivers/STM32F0xx_HAL_Driver/Src/stm32f0xx_hal_pcd.c ****   UNUSED(hpcd);
 535:Drivers/STM32F0xx_HAL_Driver/Src/stm32f0xx_hal_pcd.c ****   UNUSED(epnum);
 536:Drivers/STM32F0xx_HAL_Driver/Src/stm32f0xx_hal_pcd.c **** 
 537:Drivers/STM32F0xx_HAL_Driver/Src/stm32f0xx_hal_pcd.c ****   /* NOTE : This function Should not be modified, when the callback is needed,
 538:Drivers/STM32F0xx_HAL_Driver/Src/stm32f0xx_hal_pcd.c ****             the HAL_PCD_ISOINIncompleteCallback could be implemented in the user file
 539:Drivers/STM32F0xx_HAL_Driver/Src/stm32f0xx_hal_pcd.c ****    */ 
 540:Drivers/STM32F0xx_HAL_Driver/Src/stm32f0xx_hal_pcd.c **** }
 503              		.loc 1 540 0
 504              		@ sp needed
 505 0000 7047     		bx	lr
 506              		.cfi_endproc
 507              	.LFE49:
 509 0002 C046     		.section	.text.HAL_PCD_ConnectCallback,"ax",%progbits
 510              		.align	2
 511              		.weak	HAL_PCD_ConnectCallback
 512              		.code	16
 513              		.thumb_func
 515              	HAL_PCD_ConnectCallback:
 516              	.LFB50:
 541:Drivers/STM32F0xx_HAL_Driver/Src/stm32f0xx_hal_pcd.c **** 
 542:Drivers/STM32F0xx_HAL_Driver/Src/stm32f0xx_hal_pcd.c **** /**
 543:Drivers/STM32F0xx_HAL_Driver/Src/stm32f0xx_hal_pcd.c ****   * @brief  Connection event callbacks
 544:Drivers/STM32F0xx_HAL_Driver/Src/stm32f0xx_hal_pcd.c ****   * @param  hpcd: PCD handle
 545:Drivers/STM32F0xx_HAL_Driver/Src/stm32f0xx_hal_pcd.c ****   * @retval None
 546:Drivers/STM32F0xx_HAL_Driver/Src/stm32f0xx_hal_pcd.c ****   */
 547:Drivers/STM32F0xx_HAL_Driver/Src/stm32f0xx_hal_pcd.c ****  __weak void HAL_PCD_ConnectCallback(PCD_HandleTypeDef *hpcd)
 548:Drivers/STM32F0xx_HAL_Driver/Src/stm32f0xx_hal_pcd.c **** {
 517              		.loc 1 548 0
 518              		.cfi_startproc
 519              	.LVL36:
ARM GAS  /tmp/ccBeNIig.s 			page 20


 549:Drivers/STM32F0xx_HAL_Driver/Src/stm32f0xx_hal_pcd.c ****   /* Prevent unused argument(s) compilation warning */
 550:Drivers/STM32F0xx_HAL_Driver/Src/stm32f0xx_hal_pcd.c ****   UNUSED(hpcd);
 551:Drivers/STM32F0xx_HAL_Driver/Src/stm32f0xx_hal_pcd.c **** 
 552:Drivers/STM32F0xx_HAL_Driver/Src/stm32f0xx_hal_pcd.c ****   /* NOTE : This function Should not be modified, when the callback is needed,
 553:Drivers/STM32F0xx_HAL_Driver/Src/stm32f0xx_hal_pcd.c ****             the HAL_PCD_ConnectCallback could be implemented in the user file
 554:Drivers/STM32F0xx_HAL_Driver/Src/stm32f0xx_hal_pcd.c ****    */ 
 555:Drivers/STM32F0xx_HAL_Driver/Src/stm32f0xx_hal_pcd.c **** }
 520              		.loc 1 555 0
 521              		@ sp needed
 522 0000 7047     		bx	lr
 523              		.cfi_endproc
 524              	.LFE50:
 526 0002 C046     		.section	.text.HAL_PCD_DisconnectCallback,"ax",%progbits
 527              		.align	2
 528              		.weak	HAL_PCD_DisconnectCallback
 529              		.code	16
 530              		.thumb_func
 532              	HAL_PCD_DisconnectCallback:
 533              	.LFB51:
 556:Drivers/STM32F0xx_HAL_Driver/Src/stm32f0xx_hal_pcd.c **** 
 557:Drivers/STM32F0xx_HAL_Driver/Src/stm32f0xx_hal_pcd.c **** /**
 558:Drivers/STM32F0xx_HAL_Driver/Src/stm32f0xx_hal_pcd.c ****   * @brief  Disconnection event callbacks
 559:Drivers/STM32F0xx_HAL_Driver/Src/stm32f0xx_hal_pcd.c ****   * @param  hpcd: PCD handle
 560:Drivers/STM32F0xx_HAL_Driver/Src/stm32f0xx_hal_pcd.c ****   * @retval None
 561:Drivers/STM32F0xx_HAL_Driver/Src/stm32f0xx_hal_pcd.c ****   */
 562:Drivers/STM32F0xx_HAL_Driver/Src/stm32f0xx_hal_pcd.c ****  __weak void HAL_PCD_DisconnectCallback(PCD_HandleTypeDef *hpcd)
 563:Drivers/STM32F0xx_HAL_Driver/Src/stm32f0xx_hal_pcd.c **** {
 534              		.loc 1 563 0
 535              		.cfi_startproc
 536              	.LVL37:
 564:Drivers/STM32F0xx_HAL_Driver/Src/stm32f0xx_hal_pcd.c ****   /* Prevent unused argument(s) compilation warning */
 565:Drivers/STM32F0xx_HAL_Driver/Src/stm32f0xx_hal_pcd.c ****   UNUSED(hpcd);
 566:Drivers/STM32F0xx_HAL_Driver/Src/stm32f0xx_hal_pcd.c **** 
 567:Drivers/STM32F0xx_HAL_Driver/Src/stm32f0xx_hal_pcd.c ****   /* NOTE : This function Should not be modified, when the callback is needed,
 568:Drivers/STM32F0xx_HAL_Driver/Src/stm32f0xx_hal_pcd.c ****             the HAL_PCD_DisconnectCallback could be implemented in the user file
 569:Drivers/STM32F0xx_HAL_Driver/Src/stm32f0xx_hal_pcd.c ****    */ 
 570:Drivers/STM32F0xx_HAL_Driver/Src/stm32f0xx_hal_pcd.c **** }
 537              		.loc 1 570 0
 538              		@ sp needed
 539 0000 7047     		bx	lr
 540              		.cfi_endproc
 541              	.LFE51:
 543 0002 C046     		.section	.text.HAL_PCD_DevConnect,"ax",%progbits
 544              		.align	2
 545              		.global	HAL_PCD_DevConnect
 546              		.code	16
 547              		.thumb_func
 549              	HAL_PCD_DevConnect:
 550              	.LFB52:
 571:Drivers/STM32F0xx_HAL_Driver/Src/stm32f0xx_hal_pcd.c **** /**
 572:Drivers/STM32F0xx_HAL_Driver/Src/stm32f0xx_hal_pcd.c ****   * @}
 573:Drivers/STM32F0xx_HAL_Driver/Src/stm32f0xx_hal_pcd.c ****   */
 574:Drivers/STM32F0xx_HAL_Driver/Src/stm32f0xx_hal_pcd.c ****     
 575:Drivers/STM32F0xx_HAL_Driver/Src/stm32f0xx_hal_pcd.c **** /** @defgroup PCD_Exported_Functions_Group3 Peripheral Control functions 
 576:Drivers/STM32F0xx_HAL_Driver/Src/stm32f0xx_hal_pcd.c ****  *  @brief   management functions 
 577:Drivers/STM32F0xx_HAL_Driver/Src/stm32f0xx_hal_pcd.c ****  *
 578:Drivers/STM32F0xx_HAL_Driver/Src/stm32f0xx_hal_pcd.c **** @verbatim   
ARM GAS  /tmp/ccBeNIig.s 			page 21


 579:Drivers/STM32F0xx_HAL_Driver/Src/stm32f0xx_hal_pcd.c ****  ===============================================================================
 580:Drivers/STM32F0xx_HAL_Driver/Src/stm32f0xx_hal_pcd.c ****                       ##### Peripheral Control functions #####
 581:Drivers/STM32F0xx_HAL_Driver/Src/stm32f0xx_hal_pcd.c ****  ===============================================================================  
 582:Drivers/STM32F0xx_HAL_Driver/Src/stm32f0xx_hal_pcd.c ****     [..]
 583:Drivers/STM32F0xx_HAL_Driver/Src/stm32f0xx_hal_pcd.c ****     This subsection provides a set of functions allowing to control the PCD data 
 584:Drivers/STM32F0xx_HAL_Driver/Src/stm32f0xx_hal_pcd.c ****     transfers.
 585:Drivers/STM32F0xx_HAL_Driver/Src/stm32f0xx_hal_pcd.c **** 
 586:Drivers/STM32F0xx_HAL_Driver/Src/stm32f0xx_hal_pcd.c **** @endverbatim
 587:Drivers/STM32F0xx_HAL_Driver/Src/stm32f0xx_hal_pcd.c ****   * @{
 588:Drivers/STM32F0xx_HAL_Driver/Src/stm32f0xx_hal_pcd.c ****   */
 589:Drivers/STM32F0xx_HAL_Driver/Src/stm32f0xx_hal_pcd.c **** 
 590:Drivers/STM32F0xx_HAL_Driver/Src/stm32f0xx_hal_pcd.c **** /**
 591:Drivers/STM32F0xx_HAL_Driver/Src/stm32f0xx_hal_pcd.c ****   * @brief  Connect the USB device 
 592:Drivers/STM32F0xx_HAL_Driver/Src/stm32f0xx_hal_pcd.c ****   * @param  hpcd: PCD handle
 593:Drivers/STM32F0xx_HAL_Driver/Src/stm32f0xx_hal_pcd.c ****   * @retval HAL status
 594:Drivers/STM32F0xx_HAL_Driver/Src/stm32f0xx_hal_pcd.c ****   */
 595:Drivers/STM32F0xx_HAL_Driver/Src/stm32f0xx_hal_pcd.c **** HAL_StatusTypeDef HAL_PCD_DevConnect(PCD_HandleTypeDef *hpcd)
 596:Drivers/STM32F0xx_HAL_Driver/Src/stm32f0xx_hal_pcd.c **** {
 551              		.loc 1 596 0
 552              		.cfi_startproc
 553              	.LVL38:
 554 0000 30B5     		push	{r4, r5, lr}
 555              	.LCFI3:
 556              		.cfi_def_cfa_offset 12
 557              		.cfi_offset 4, -12
 558              		.cfi_offset 5, -8
 559              		.cfi_offset 14, -4
 597:Drivers/STM32F0xx_HAL_Driver/Src/stm32f0xx_hal_pcd.c ****   __HAL_LOCK(hpcd); 
 560              		.loc 1 597 0
 561 0002 F423     		mov	r3, #244
 562 0004 5B00     		lsl	r3, r3, #1
 563 0006 C35C     		ldrb	r3, [r0, r3]
 564 0008 012B     		cmp	r3, #1
 565 000a 0ED0     		beq	.L33
 566              		.loc 1 597 0 is_stmt 0 discriminator 2
 567 000c F422     		mov	r2, #244
 568 000e 5200     		lsl	r2, r2, #1
 569 0010 0123     		mov	r3, #1
 570 0012 8354     		strb	r3, [r0, r2]
 598:Drivers/STM32F0xx_HAL_Driver/Src/stm32f0xx_hal_pcd.c ****   
 599:Drivers/STM32F0xx_HAL_Driver/Src/stm32f0xx_hal_pcd.c ****   /* Enabling DP Pull-Down bit to Connect internal pull-up on USB DP line */
 600:Drivers/STM32F0xx_HAL_Driver/Src/stm32f0xx_hal_pcd.c ****   hpcd->Instance->BCDR |= USB_BCDR_DPPU;
 571              		.loc 1 600 0 is_stmt 1 discriminator 2
 572 0014 0368     		ldr	r3, [r0]
 573 0016 5821     		mov	r1, #88
 574 0018 5D5A     		ldrh	r5, [r3, r1]
 575 001a 8024     		mov	r4, #128
 576 001c 2402     		lsl	r4, r4, #8
 577 001e 2C43     		orr	r4, r5
 578 0020 5C52     		strh	r4, [r3, r1]
 601:Drivers/STM32F0xx_HAL_Driver/Src/stm32f0xx_hal_pcd.c ****   
 602:Drivers/STM32F0xx_HAL_Driver/Src/stm32f0xx_hal_pcd.c ****   __HAL_UNLOCK(hpcd); 
 579              		.loc 1 602 0 discriminator 2
 580 0022 0023     		mov	r3, #0
 581 0024 8354     		strb	r3, [r0, r2]
 603:Drivers/STM32F0xx_HAL_Driver/Src/stm32f0xx_hal_pcd.c ****   return HAL_OK;
 582              		.loc 1 603 0 discriminator 2
ARM GAS  /tmp/ccBeNIig.s 			page 22


 583 0026 0020     		mov	r0, #0
 584              	.LVL39:
 585 0028 00E0     		b	.L32
 586              	.LVL40:
 587              	.L33:
 597:Drivers/STM32F0xx_HAL_Driver/Src/stm32f0xx_hal_pcd.c ****   __HAL_LOCK(hpcd); 
 588              		.loc 1 597 0
 589 002a 0220     		mov	r0, #2
 590              	.LVL41:
 591              	.L32:
 604:Drivers/STM32F0xx_HAL_Driver/Src/stm32f0xx_hal_pcd.c **** }
 592              		.loc 1 604 0
 593              		@ sp needed
 594 002c 30BD     		pop	{r4, r5, pc}
 595              		.cfi_endproc
 596              	.LFE52:
 598 002e C046     		.section	.text.HAL_PCD_DevDisconnect,"ax",%progbits
 599              		.align	2
 600              		.global	HAL_PCD_DevDisconnect
 601              		.code	16
 602              		.thumb_func
 604              	HAL_PCD_DevDisconnect:
 605              	.LFB53:
 605:Drivers/STM32F0xx_HAL_Driver/Src/stm32f0xx_hal_pcd.c **** 
 606:Drivers/STM32F0xx_HAL_Driver/Src/stm32f0xx_hal_pcd.c **** /**
 607:Drivers/STM32F0xx_HAL_Driver/Src/stm32f0xx_hal_pcd.c ****   * @brief  Disconnect the USB device 
 608:Drivers/STM32F0xx_HAL_Driver/Src/stm32f0xx_hal_pcd.c ****   * @param  hpcd: PCD handle
 609:Drivers/STM32F0xx_HAL_Driver/Src/stm32f0xx_hal_pcd.c ****   * @retval HAL status
 610:Drivers/STM32F0xx_HAL_Driver/Src/stm32f0xx_hal_pcd.c ****   */
 611:Drivers/STM32F0xx_HAL_Driver/Src/stm32f0xx_hal_pcd.c **** HAL_StatusTypeDef HAL_PCD_DevDisconnect(PCD_HandleTypeDef *hpcd)
 612:Drivers/STM32F0xx_HAL_Driver/Src/stm32f0xx_hal_pcd.c **** {
 606              		.loc 1 612 0
 607              		.cfi_startproc
 608              	.LVL42:
 609 0000 10B5     		push	{r4, lr}
 610              	.LCFI4:
 611              		.cfi_def_cfa_offset 8
 612              		.cfi_offset 4, -8
 613              		.cfi_offset 14, -4
 613:Drivers/STM32F0xx_HAL_Driver/Src/stm32f0xx_hal_pcd.c ****   __HAL_LOCK(hpcd); 
 614              		.loc 1 613 0
 615 0002 F423     		mov	r3, #244
 616 0004 5B00     		lsl	r3, r3, #1
 617 0006 C35C     		ldrb	r3, [r0, r3]
 618 0008 012B     		cmp	r3, #1
 619 000a 0DD0     		beq	.L36
 620              		.loc 1 613 0 is_stmt 0 discriminator 2
 621 000c F422     		mov	r2, #244
 622 000e 5200     		lsl	r2, r2, #1
 623 0010 0123     		mov	r3, #1
 624 0012 8354     		strb	r3, [r0, r2]
 614:Drivers/STM32F0xx_HAL_Driver/Src/stm32f0xx_hal_pcd.c ****   
 615:Drivers/STM32F0xx_HAL_Driver/Src/stm32f0xx_hal_pcd.c ****   /* Disable DP Pull-Down bit*/
 616:Drivers/STM32F0xx_HAL_Driver/Src/stm32f0xx_hal_pcd.c ****    hpcd->Instance->BCDR &= (uint16_t)(~(USB_BCDR_DPPU));
 625              		.loc 1 616 0 is_stmt 1 discriminator 2
 626 0014 0368     		ldr	r3, [r0]
 627 0016 5821     		mov	r1, #88
ARM GAS  /tmp/ccBeNIig.s 			page 23


 628 0018 5C5A     		ldrh	r4, [r3, r1]
 629 001a 6404     		lsl	r4, r4, #17
 630 001c 640C     		lsr	r4, r4, #17
 631 001e 5C52     		strh	r4, [r3, r1]
 617:Drivers/STM32F0xx_HAL_Driver/Src/stm32f0xx_hal_pcd.c ****   
 618:Drivers/STM32F0xx_HAL_Driver/Src/stm32f0xx_hal_pcd.c ****   __HAL_UNLOCK(hpcd); 
 632              		.loc 1 618 0 discriminator 2
 633 0020 0023     		mov	r3, #0
 634 0022 8354     		strb	r3, [r0, r2]
 619:Drivers/STM32F0xx_HAL_Driver/Src/stm32f0xx_hal_pcd.c ****   return HAL_OK;
 635              		.loc 1 619 0 discriminator 2
 636 0024 0020     		mov	r0, #0
 637              	.LVL43:
 638 0026 00E0     		b	.L35
 639              	.LVL44:
 640              	.L36:
 613:Drivers/STM32F0xx_HAL_Driver/Src/stm32f0xx_hal_pcd.c ****   __HAL_LOCK(hpcd); 
 641              		.loc 1 613 0
 642 0028 0220     		mov	r0, #2
 643              	.LVL45:
 644              	.L35:
 620:Drivers/STM32F0xx_HAL_Driver/Src/stm32f0xx_hal_pcd.c **** }
 645              		.loc 1 620 0
 646              		@ sp needed
 647 002a 10BD     		pop	{r4, pc}
 648              		.cfi_endproc
 649              	.LFE53:
 651              		.section	.text.HAL_PCD_SetAddress,"ax",%progbits
 652              		.align	2
 653              		.global	HAL_PCD_SetAddress
 654              		.code	16
 655              		.thumb_func
 657              	HAL_PCD_SetAddress:
 658              	.LFB54:
 621:Drivers/STM32F0xx_HAL_Driver/Src/stm32f0xx_hal_pcd.c **** 
 622:Drivers/STM32F0xx_HAL_Driver/Src/stm32f0xx_hal_pcd.c **** /**
 623:Drivers/STM32F0xx_HAL_Driver/Src/stm32f0xx_hal_pcd.c ****   * @brief  Set the USB Device address 
 624:Drivers/STM32F0xx_HAL_Driver/Src/stm32f0xx_hal_pcd.c ****   * @param  hpcd: PCD handle
 625:Drivers/STM32F0xx_HAL_Driver/Src/stm32f0xx_hal_pcd.c ****   * @param  address: new device address
 626:Drivers/STM32F0xx_HAL_Driver/Src/stm32f0xx_hal_pcd.c ****   * @retval HAL status
 627:Drivers/STM32F0xx_HAL_Driver/Src/stm32f0xx_hal_pcd.c ****   */
 628:Drivers/STM32F0xx_HAL_Driver/Src/stm32f0xx_hal_pcd.c **** HAL_StatusTypeDef HAL_PCD_SetAddress(PCD_HandleTypeDef *hpcd, uint8_t address)
 629:Drivers/STM32F0xx_HAL_Driver/Src/stm32f0xx_hal_pcd.c **** {
 659              		.loc 1 629 0
 660              		.cfi_startproc
 661              	.LVL46:
 630:Drivers/STM32F0xx_HAL_Driver/Src/stm32f0xx_hal_pcd.c ****    __HAL_LOCK(hpcd); 
 662              		.loc 1 630 0
 663 0000 F423     		mov	r3, #244
 664 0002 5B00     		lsl	r3, r3, #1
 665 0004 C35C     		ldrb	r3, [r0, r3]
 666 0006 012B     		cmp	r3, #1
 667 0008 12D0     		beq	.L41
 668              		.loc 1 630 0 is_stmt 0 discriminator 2
 669 000a 0122     		mov	r2, #1
 670 000c F423     		mov	r3, #244
 671 000e 5B00     		lsl	r3, r3, #1
ARM GAS  /tmp/ccBeNIig.s 			page 24


 672 0010 C254     		strb	r2, [r0, r3]
 631:Drivers/STM32F0xx_HAL_Driver/Src/stm32f0xx_hal_pcd.c **** 
 632:Drivers/STM32F0xx_HAL_Driver/Src/stm32f0xx_hal_pcd.c ****    if(address == 0U) 
 673              		.loc 1 632 0 is_stmt 1 discriminator 2
 674 0012 0029     		cmp	r1, #0
 675 0014 04D1     		bne	.L39
 633:Drivers/STM32F0xx_HAL_Driver/Src/stm32f0xx_hal_pcd.c ****    {
 634:Drivers/STM32F0xx_HAL_Driver/Src/stm32f0xx_hal_pcd.c ****      /* set device address and enable function */
 635:Drivers/STM32F0xx_HAL_Driver/Src/stm32f0xx_hal_pcd.c ****      hpcd->Instance->DADDR = USB_DADDR_EF;
 676              		.loc 1 635 0
 677 0016 8022     		mov	r2, #128
 678 0018 4C23     		mov	r3, #76
 679 001a 0168     		ldr	r1, [r0]
 680              	.LVL47:
 681 001c CA52     		strh	r2, [r1, r3]
 682 001e 01E0     		b	.L40
 683              	.LVL48:
 684              	.L39:
 636:Drivers/STM32F0xx_HAL_Driver/Src/stm32f0xx_hal_pcd.c ****    }
 637:Drivers/STM32F0xx_HAL_Driver/Src/stm32f0xx_hal_pcd.c ****    else /* USB Address will be applied later */
 638:Drivers/STM32F0xx_HAL_Driver/Src/stm32f0xx_hal_pcd.c ****    {
 639:Drivers/STM32F0xx_HAL_Driver/Src/stm32f0xx_hal_pcd.c ****      hpcd->USB_Address = address;
 685              		.loc 1 639 0
 686 0020 2423     		mov	r3, #36
 687 0022 C154     		strb	r1, [r0, r3]
 688              	.LVL49:
 689              	.L40:
 640:Drivers/STM32F0xx_HAL_Driver/Src/stm32f0xx_hal_pcd.c ****    }
 641:Drivers/STM32F0xx_HAL_Driver/Src/stm32f0xx_hal_pcd.c **** 
 642:Drivers/STM32F0xx_HAL_Driver/Src/stm32f0xx_hal_pcd.c ****   __HAL_UNLOCK(hpcd);   
 690              		.loc 1 642 0
 691 0024 0022     		mov	r2, #0
 692 0026 F423     		mov	r3, #244
 693 0028 5B00     		lsl	r3, r3, #1
 694 002a C254     		strb	r2, [r0, r3]
 643:Drivers/STM32F0xx_HAL_Driver/Src/stm32f0xx_hal_pcd.c ****   return HAL_OK;
 695              		.loc 1 643 0
 696 002c 0020     		mov	r0, #0
 697              	.LVL50:
 698 002e 00E0     		b	.L38
 699              	.LVL51:
 700              	.L41:
 630:Drivers/STM32F0xx_HAL_Driver/Src/stm32f0xx_hal_pcd.c ****    __HAL_LOCK(hpcd); 
 701              		.loc 1 630 0
 702 0030 0220     		mov	r0, #2
 703              	.LVL52:
 704              	.L38:
 644:Drivers/STM32F0xx_HAL_Driver/Src/stm32f0xx_hal_pcd.c **** }
 705              		.loc 1 644 0
 706              		@ sp needed
 707 0032 7047     		bx	lr
 708              		.cfi_endproc
 709              	.LFE54:
 711              		.section	.text.HAL_PCD_EP_Open,"ax",%progbits
 712              		.align	2
 713              		.global	HAL_PCD_EP_Open
 714              		.code	16
ARM GAS  /tmp/ccBeNIig.s 			page 25


 715              		.thumb_func
 717              	HAL_PCD_EP_Open:
 718              	.LFB55:
 645:Drivers/STM32F0xx_HAL_Driver/Src/stm32f0xx_hal_pcd.c **** /**
 646:Drivers/STM32F0xx_HAL_Driver/Src/stm32f0xx_hal_pcd.c ****   * @brief  Open and configure an endpoint
 647:Drivers/STM32F0xx_HAL_Driver/Src/stm32f0xx_hal_pcd.c ****   * @param  hpcd: PCD handle
 648:Drivers/STM32F0xx_HAL_Driver/Src/stm32f0xx_hal_pcd.c ****   * @param  ep_addr: endpoint address
 649:Drivers/STM32F0xx_HAL_Driver/Src/stm32f0xx_hal_pcd.c ****   * @param  ep_mps: endpoint max packert size
 650:Drivers/STM32F0xx_HAL_Driver/Src/stm32f0xx_hal_pcd.c ****   * @param  ep_type: endpoint type   
 651:Drivers/STM32F0xx_HAL_Driver/Src/stm32f0xx_hal_pcd.c ****   * @retval HAL status
 652:Drivers/STM32F0xx_HAL_Driver/Src/stm32f0xx_hal_pcd.c ****   */
 653:Drivers/STM32F0xx_HAL_Driver/Src/stm32f0xx_hal_pcd.c **** HAL_StatusTypeDef HAL_PCD_EP_Open(PCD_HandleTypeDef *hpcd, uint8_t ep_addr, uint16_t ep_mps, uint8_
 654:Drivers/STM32F0xx_HAL_Driver/Src/stm32f0xx_hal_pcd.c **** {
 719              		.loc 1 654 0
 720              		.cfi_startproc
 721              	.LVL53:
 722 0000 70B5     		push	{r4, r5, r6, lr}
 723              	.LCFI5:
 724              		.cfi_def_cfa_offset 16
 725              		.cfi_offset 4, -16
 726              		.cfi_offset 5, -12
 727              		.cfi_offset 6, -8
 728              		.cfi_offset 14, -4
 729              	.LVL54:
 655:Drivers/STM32F0xx_HAL_Driver/Src/stm32f0xx_hal_pcd.c ****   HAL_StatusTypeDef  ret = HAL_OK;
 656:Drivers/STM32F0xx_HAL_Driver/Src/stm32f0xx_hal_pcd.c ****   PCD_EPTypeDef *ep;
 657:Drivers/STM32F0xx_HAL_Driver/Src/stm32f0xx_hal_pcd.c ****   
 658:Drivers/STM32F0xx_HAL_Driver/Src/stm32f0xx_hal_pcd.c ****   if ((ep_addr & 0x80U) == 0x80U)
 730              		.loc 1 658 0
 731 0002 CDB2     		uxtb	r5, r1
 732 0004 6CB2     		sxtb	r4, r5
 733 0006 002C     		cmp	r4, #0
 734 0008 07DA     		bge	.L43
 659:Drivers/STM32F0xx_HAL_Driver/Src/stm32f0xx_hal_pcd.c ****   {
 660:Drivers/STM32F0xx_HAL_Driver/Src/stm32f0xx_hal_pcd.c ****     ep = &hpcd->IN_ep[ep_addr & 0x7FU];
 735              		.loc 1 660 0
 736 000a 7F24     		mov	r4, #127
 737 000c 0C40     		and	r4, r1
 738 000e E600     		lsl	r6, r4, #3
 739 0010 341B     		sub	r4, r6, r4
 740 0012 A400     		lsl	r4, r4, #2
 741 0014 2834     		add	r4, r4, #40
 742 0016 0419     		add	r4, r0, r4
 743              	.LVL55:
 744 0018 07E0     		b	.L44
 745              	.LVL56:
 746              	.L43:
 661:Drivers/STM32F0xx_HAL_Driver/Src/stm32f0xx_hal_pcd.c ****   }
 662:Drivers/STM32F0xx_HAL_Driver/Src/stm32f0xx_hal_pcd.c ****   else
 663:Drivers/STM32F0xx_HAL_Driver/Src/stm32f0xx_hal_pcd.c ****   {
 664:Drivers/STM32F0xx_HAL_Driver/Src/stm32f0xx_hal_pcd.c ****     ep = &hpcd->OUT_ep[ep_addr & 0x7FU];
 747              		.loc 1 664 0
 748 001a 7F24     		mov	r4, #127
 749 001c 0C40     		and	r4, r1
 750 001e E600     		lsl	r6, r4, #3
 751 0020 341B     		sub	r4, r6, r4
 752 0022 A400     		lsl	r4, r4, #2
ARM GAS  /tmp/ccBeNIig.s 			page 26


 753 0024 0934     		add	r4, r4, #9
 754 0026 FF34     		add	r4, r4, #255
 755 0028 0419     		add	r4, r0, r4
 756              	.LVL57:
 757              	.L44:
 665:Drivers/STM32F0xx_HAL_Driver/Src/stm32f0xx_hal_pcd.c ****   }
 666:Drivers/STM32F0xx_HAL_Driver/Src/stm32f0xx_hal_pcd.c ****   ep->num   = ep_addr & 0x7FU;
 758              		.loc 1 666 0
 759 002a 7F26     		mov	r6, #127
 760 002c 3140     		and	r1, r6
 761              	.LVL58:
 762 002e 2170     		strb	r1, [r4]
 667:Drivers/STM32F0xx_HAL_Driver/Src/stm32f0xx_hal_pcd.c ****   
 668:Drivers/STM32F0xx_HAL_Driver/Src/stm32f0xx_hal_pcd.c ****   ep->is_in = (0x80U & ep_addr) != 0U;
 763              		.loc 1 668 0
 764 0030 ED09     		lsr	r5, r5, #7
 765              	.LVL59:
 766 0032 6570     		strb	r5, [r4, #1]
 669:Drivers/STM32F0xx_HAL_Driver/Src/stm32f0xx_hal_pcd.c ****   ep->maxpacket = ep_mps;
 767              		.loc 1 669 0
 768 0034 E260     		str	r2, [r4, #12]
 670:Drivers/STM32F0xx_HAL_Driver/Src/stm32f0xx_hal_pcd.c ****   ep->type = ep_type;
 769              		.loc 1 670 0
 770 0036 E370     		strb	r3, [r4, #3]
 671:Drivers/STM32F0xx_HAL_Driver/Src/stm32f0xx_hal_pcd.c ****   
 672:Drivers/STM32F0xx_HAL_Driver/Src/stm32f0xx_hal_pcd.c ****   __HAL_LOCK(hpcd); 
 771              		.loc 1 672 0
 772 0038 F423     		mov	r3, #244
 773              	.LVL60:
 774 003a 5B00     		lsl	r3, r3, #1
 775 003c C35C     		ldrb	r3, [r0, r3]
 776 003e 012B     		cmp	r3, #1
 777 0040 00D1     		bne	.LCB668
 778 0042 51E1     		b	.L65	@long jump
 779              	.LCB668:
 780              		.loc 1 672 0 is_stmt 0 discriminator 2
 781 0044 0122     		mov	r2, #1
 782              	.LVL61:
 783 0046 F423     		mov	r3, #244
 784 0048 5B00     		lsl	r3, r3, #1
 785 004a C254     		strb	r2, [r0, r3]
 786              	.LVL62:
 673:Drivers/STM32F0xx_HAL_Driver/Src/stm32f0xx_hal_pcd.c **** 
 674:Drivers/STM32F0xx_HAL_Driver/Src/stm32f0xx_hal_pcd.c ****   /* initialize Endpoint */
 675:Drivers/STM32F0xx_HAL_Driver/Src/stm32f0xx_hal_pcd.c ****   switch (ep->type)
 787              		.loc 1 675 0 is_stmt 1 discriminator 2
 788 004c E378     		ldrb	r3, [r4, #3]
 789 004e 012B     		cmp	r3, #1
 790 0050 27D0     		beq	.L47
 791 0052 002B     		cmp	r3, #0
 792 0054 04D0     		beq	.L48
 793 0056 022B     		cmp	r3, #2
 794 0058 0ED0     		beq	.L49
 795 005a 032B     		cmp	r3, #3
 796 005c 15D0     		beq	.L50
 797 005e 2BE0     		b	.L46
 798              	.L48:
ARM GAS  /tmp/ccBeNIig.s 			page 27


 676:Drivers/STM32F0xx_HAL_Driver/Src/stm32f0xx_hal_pcd.c ****   {
 677:Drivers/STM32F0xx_HAL_Driver/Src/stm32f0xx_hal_pcd.c ****   case PCD_EP_TYPE_CTRL:
 678:Drivers/STM32F0xx_HAL_Driver/Src/stm32f0xx_hal_pcd.c ****     PCD_SET_EPTYPE(hpcd->Instance, ep->num, USB_EP_CONTROL);
 799              		.loc 1 678 0
 800 0060 2378     		ldrb	r3, [r4]
 801 0062 9B00     		lsl	r3, r3, #2
 802 0064 0168     		ldr	r1, [r0]
 803 0066 CB18     		add	r3, r1, r3
 804 0068 1988     		ldrh	r1, [r3]
 805 006a A04A     		ldr	r2, .L66
 806 006c 0A40     		and	r2, r1
 807 006e 8021     		mov	r1, #128
 808 0070 8900     		lsl	r1, r1, #2
 809 0072 0A43     		orr	r2, r1
 810 0074 1A80     		strh	r2, [r3]
 679:Drivers/STM32F0xx_HAL_Driver/Src/stm32f0xx_hal_pcd.c ****     break;
 811              		.loc 1 679 0
 812 0076 1FE0     		b	.L46
 813              	.L49:
 680:Drivers/STM32F0xx_HAL_Driver/Src/stm32f0xx_hal_pcd.c ****   case PCD_EP_TYPE_BULK:
 681:Drivers/STM32F0xx_HAL_Driver/Src/stm32f0xx_hal_pcd.c ****     PCD_SET_EPTYPE(hpcd->Instance, ep->num, USB_EP_BULK);
 814              		.loc 1 681 0
 815 0078 2378     		ldrb	r3, [r4]
 816 007a 9B00     		lsl	r3, r3, #2
 817 007c 0268     		ldr	r2, [r0]
 818 007e D318     		add	r3, r2, r3
 819 0080 1988     		ldrh	r1, [r3]
 820 0082 9A4A     		ldr	r2, .L66
 821 0084 0A40     		and	r2, r1
 822 0086 1A80     		strh	r2, [r3]
 682:Drivers/STM32F0xx_HAL_Driver/Src/stm32f0xx_hal_pcd.c ****     break;
 823              		.loc 1 682 0
 824 0088 16E0     		b	.L46
 825              	.L50:
 683:Drivers/STM32F0xx_HAL_Driver/Src/stm32f0xx_hal_pcd.c ****   case PCD_EP_TYPE_INTR:
 684:Drivers/STM32F0xx_HAL_Driver/Src/stm32f0xx_hal_pcd.c ****     PCD_SET_EPTYPE(hpcd->Instance, ep->num, USB_EP_INTERRUPT);
 826              		.loc 1 684 0
 827 008a 2378     		ldrb	r3, [r4]
 828 008c 9B00     		lsl	r3, r3, #2
 829 008e 0568     		ldr	r5, [r0]
 830 0090 EB18     		add	r3, r5, r3
 831 0092 1988     		ldrh	r1, [r3]
 832 0094 954A     		ldr	r2, .L66
 833 0096 0A40     		and	r2, r1
 834 0098 C021     		mov	r1, #192
 835 009a C900     		lsl	r1, r1, #3
 836 009c 0A43     		orr	r2, r1
 837 009e 1A80     		strh	r2, [r3]
 685:Drivers/STM32F0xx_HAL_Driver/Src/stm32f0xx_hal_pcd.c ****     break;
 838              		.loc 1 685 0
 839 00a0 0AE0     		b	.L46
 840              	.L47:
 686:Drivers/STM32F0xx_HAL_Driver/Src/stm32f0xx_hal_pcd.c ****   case PCD_EP_TYPE_ISOC:
 687:Drivers/STM32F0xx_HAL_Driver/Src/stm32f0xx_hal_pcd.c ****     PCD_SET_EPTYPE(hpcd->Instance, ep->num, USB_EP_ISOCHRONOUS);
 841              		.loc 1 687 0
 842 00a2 2378     		ldrb	r3, [r4]
 843 00a4 9B00     		lsl	r3, r3, #2
ARM GAS  /tmp/ccBeNIig.s 			page 28


 844 00a6 0168     		ldr	r1, [r0]
 845 00a8 CB18     		add	r3, r1, r3
 846 00aa 1988     		ldrh	r1, [r3]
 847 00ac 8F4A     		ldr	r2, .L66
 848 00ae 0A40     		and	r2, r1
 849 00b0 8021     		mov	r1, #128
 850 00b2 C900     		lsl	r1, r1, #3
 851 00b4 0A43     		orr	r2, r1
 852 00b6 1A80     		strh	r2, [r3]
 853              	.L46:
 688:Drivers/STM32F0xx_HAL_Driver/Src/stm32f0xx_hal_pcd.c ****     break;
 689:Drivers/STM32F0xx_HAL_Driver/Src/stm32f0xx_hal_pcd.c ****   default:
 690:Drivers/STM32F0xx_HAL_Driver/Src/stm32f0xx_hal_pcd.c ****     break;
 691:Drivers/STM32F0xx_HAL_Driver/Src/stm32f0xx_hal_pcd.c ****   } 
 692:Drivers/STM32F0xx_HAL_Driver/Src/stm32f0xx_hal_pcd.c ****   
 693:Drivers/STM32F0xx_HAL_Driver/Src/stm32f0xx_hal_pcd.c ****   PCD_SET_EP_ADDRESS(hpcd->Instance, ep->num, ep->num);
 854              		.loc 1 693 0
 855 00b8 2278     		ldrb	r2, [r4]
 856 00ba 9300     		lsl	r3, r2, #2
 857 00bc 0568     		ldr	r5, [r0]
 858 00be EB18     		add	r3, r5, r3
 859 00c0 1D88     		ldrh	r5, [r3]
 860 00c2 8B49     		ldr	r1, .L66+4
 861 00c4 2940     		and	r1, r5
 862 00c6 0A43     		orr	r2, r1
 863 00c8 8A49     		ldr	r1, .L66+8
 864 00ca 0A43     		orr	r2, r1
 865 00cc 1A80     		strh	r2, [r3]
 694:Drivers/STM32F0xx_HAL_Driver/Src/stm32f0xx_hal_pcd.c ****   
 695:Drivers/STM32F0xx_HAL_Driver/Src/stm32f0xx_hal_pcd.c ****   if (ep->doublebuffer == 0U) 
 866              		.loc 1 695 0
 867 00ce A37A     		ldrb	r3, [r4, #10]
 868 00d0 002B     		cmp	r3, #0
 869 00d2 6FD1     		bne	.L51
 696:Drivers/STM32F0xx_HAL_Driver/Src/stm32f0xx_hal_pcd.c ****   {
 697:Drivers/STM32F0xx_HAL_Driver/Src/stm32f0xx_hal_pcd.c ****     if (ep->is_in)
 870              		.loc 1 697 0
 871 00d4 6378     		ldrb	r3, [r4, #1]
 872 00d6 002B     		cmp	r3, #0
 873 00d8 26D0     		beq	.L52
 698:Drivers/STM32F0xx_HAL_Driver/Src/stm32f0xx_hal_pcd.c ****     {
 699:Drivers/STM32F0xx_HAL_Driver/Src/stm32f0xx_hal_pcd.c ****       /*Set the endpoint Transmit buffer address */
 700:Drivers/STM32F0xx_HAL_Driver/Src/stm32f0xx_hal_pcd.c ****       PCD_SET_EP_TX_ADDRESS(hpcd->Instance, ep->num, ep->pmaadress);
 874              		.loc 1 700 0
 875 00da 0368     		ldr	r3, [r0]
 876 00dc 5022     		mov	r2, #80
 877 00de 995A     		ldrh	r1, [r3, r2]
 878 00e0 2278     		ldrb	r2, [r4]
 879 00e2 D200     		lsl	r2, r2, #3
 880 00e4 8A18     		add	r2, r1, r2
 881 00e6 D318     		add	r3, r2, r3
 882 00e8 8021     		mov	r1, #128
 883 00ea C900     		lsl	r1, r1, #3
 884 00ec 5B18     		add	r3, r3, r1
 885 00ee A288     		ldrh	r2, [r4, #4]
 886 00f0 0121     		mov	r1, #1
 887 00f2 8A43     		bic	r2, r1
ARM GAS  /tmp/ccBeNIig.s 			page 29


 888 00f4 1A80     		strh	r2, [r3]
 701:Drivers/STM32F0xx_HAL_Driver/Src/stm32f0xx_hal_pcd.c ****       PCD_CLEAR_TX_DTOG(hpcd->Instance, ep->num)
 889              		.loc 1 701 0
 890 00f6 2378     		ldrb	r3, [r4]
 891 00f8 9B00     		lsl	r3, r3, #2
 892 00fa 0268     		ldr	r2, [r0]
 893 00fc D318     		add	r3, r2, r3
 894 00fe 1A88     		ldrh	r2, [r3]
 895 0100 5506     		lsl	r5, r2, #25
 896 0102 04D5     		bpl	.L53
 897              		.loc 1 701 0 is_stmt 0 discriminator 1
 898 0104 7A49     		ldr	r1, .L66+4
 899 0106 0A40     		and	r2, r1
 900 0108 7B49     		ldr	r1, .L66+12
 901 010a 0A43     		orr	r2, r1
 902 010c 1A80     		strh	r2, [r3]
 903              	.L53:
 904              	.LBB2:
 702:Drivers/STM32F0xx_HAL_Driver/Src/stm32f0xx_hal_pcd.c ****       /* Configure NAK status for the Endpoint*/
 703:Drivers/STM32F0xx_HAL_Driver/Src/stm32f0xx_hal_pcd.c ****       PCD_SET_EP_TX_STATUS(hpcd->Instance, ep->num, USB_EP_TX_NAK) 
 905              		.loc 1 703 0 is_stmt 1
 906 010e 2378     		ldrb	r3, [r4]
 907 0110 9B00     		lsl	r3, r3, #2
 908 0112 0168     		ldr	r1, [r0]
 909 0114 CB18     		add	r3, r1, r3
 910 0116 1988     		ldrh	r1, [r3]
 911 0118 784A     		ldr	r2, .L66+16
 912 011a 0A40     		and	r2, r1
 913              	.LVL63:
 914 011c 2021     		mov	r1, #32
 915 011e 4A40     		eor	r2, r1
 916              	.LVL64:
 917 0120 7449     		ldr	r1, .L66+8
 918 0122 0A43     		orr	r2, r1
 919              	.LVL65:
 920 0124 1A80     		strh	r2, [r3]
 921              	.LVL66:
 922              	.LBE2:
 923 0126 D9E0     		b	.L54
 924              	.L52:
 704:Drivers/STM32F0xx_HAL_Driver/Src/stm32f0xx_hal_pcd.c ****     }
 705:Drivers/STM32F0xx_HAL_Driver/Src/stm32f0xx_hal_pcd.c ****     else
 706:Drivers/STM32F0xx_HAL_Driver/Src/stm32f0xx_hal_pcd.c ****     {
 707:Drivers/STM32F0xx_HAL_Driver/Src/stm32f0xx_hal_pcd.c ****       /*Set the endpoint Receive buffer address */
 708:Drivers/STM32F0xx_HAL_Driver/Src/stm32f0xx_hal_pcd.c ****       PCD_SET_EP_RX_ADDRESS(hpcd->Instance, ep->num, ep->pmaadress);
 925              		.loc 1 708 0
 926 0128 0368     		ldr	r3, [r0]
 927 012a 5022     		mov	r2, #80
 928 012c 9D5A     		ldrh	r5, [r3, r2]
 929 012e 2178     		ldrb	r1, [r4]
 930 0130 C900     		lsl	r1, r1, #3
 931 0132 6918     		add	r1, r5, r1
 932 0134 CB18     		add	r3, r1, r3
 933 0136 724D     		ldr	r5, .L66+20
 934 0138 5B19     		add	r3, r3, r5
 935 013a A188     		ldrh	r1, [r4, #4]
 936 013c 0125     		mov	r5, #1
ARM GAS  /tmp/ccBeNIig.s 			page 30


 937 013e A943     		bic	r1, r5
 938 0140 1980     		strh	r1, [r3]
 939              	.LBB3:
 709:Drivers/STM32F0xx_HAL_Driver/Src/stm32f0xx_hal_pcd.c ****       /*Set the endpoint Receive buffer counter*/
 710:Drivers/STM32F0xx_HAL_Driver/Src/stm32f0xx_hal_pcd.c ****       PCD_SET_EP_RX_CNT(hpcd->Instance, ep->num, ep->maxpacket)
 940              		.loc 1 710 0
 941 0142 0368     		ldr	r3, [r0]
 942 0144 995A     		ldrh	r1, [r3, r2]
 943 0146 2278     		ldrb	r2, [r4]
 944 0148 D200     		lsl	r2, r2, #3
 945 014a 8A18     		add	r2, r1, r2
 946 014c D318     		add	r3, r2, r3
 947 014e 6D49     		ldr	r1, .L66+24
 948 0150 5A18     		add	r2, r3, r1
 949              	.LVL67:
 950              	.LBB4:
 951 0152 E368     		ldr	r3, [r4, #12]
 952 0154 3E2B     		cmp	r3, #62
 953 0156 0BD9     		bls	.L55
 954              		.loc 1 710 0 is_stmt 0 discriminator 1
 955 0158 5909     		lsr	r1, r3, #5
 956 015a 89B2     		uxth	r1, r1
 957              	.LVL68:
 958 015c DD06     		lsl	r5, r3, #27
 959 015e 01D1     		bne	.L56
 960 0160 0139     		sub	r1, r1, #1
 961              	.LVL69:
 962 0162 89B2     		uxth	r1, r1
 963              	.LVL70:
 964              	.L56:
 965              		.loc 1 710 0 discriminator 2
 966 0164 8902     		lsl	r1, r1, #10
 967              	.LVL71:
 968 0166 8023     		mov	r3, #128
 969 0168 1B02     		lsl	r3, r3, #8
 970 016a 1943     		orr	r1, r3
 971 016c 1180     		strh	r1, [r2]
 972 016e 07E0     		b	.L57
 973              	.L55:
 974 0170 5908     		lsr	r1, r3, #1
 975 0172 89B2     		uxth	r1, r1
 976              	.LVL72:
 977 0174 DD07     		lsl	r5, r3, #31
 978 0176 01D5     		bpl	.L58
 979              		.loc 1 710 0 discriminator 1
 980 0178 0131     		add	r1, r1, #1
 981              	.LVL73:
 982 017a 89B2     		uxth	r1, r1
 983              	.LVL74:
 984              	.L58:
 985              		.loc 1 710 0 discriminator 2
 986 017c 8902     		lsl	r1, r1, #10
 987              	.LVL75:
 988 017e 1180     		strh	r1, [r2]
 989              	.L57:
 990              	.LBE4:
 991              	.LBE3:
ARM GAS  /tmp/ccBeNIig.s 			page 31


 711:Drivers/STM32F0xx_HAL_Driver/Src/stm32f0xx_hal_pcd.c ****       PCD_CLEAR_RX_DTOG(hpcd->Instance, ep->num)
 992              		.loc 1 711 0 is_stmt 1
 993 0180 2378     		ldrb	r3, [r4]
 994 0182 9B00     		lsl	r3, r3, #2
 995 0184 0168     		ldr	r1, [r0]
 996 0186 CB18     		add	r3, r1, r3
 997 0188 1A88     		ldrh	r2, [r3]
 998              	.LVL76:
 999 018a 5504     		lsl	r5, r2, #17
 1000 018c 04D5     		bpl	.L59
 1001              		.loc 1 711 0 is_stmt 0 discriminator 1
 1002 018e 5849     		ldr	r1, .L66+4
 1003 0190 0A40     		and	r2, r1
 1004 0192 5D49     		ldr	r1, .L66+28
 1005 0194 0A43     		orr	r2, r1
 1006 0196 1A80     		strh	r2, [r3]
 1007              	.L59:
 1008              	.LBB5:
 712:Drivers/STM32F0xx_HAL_Driver/Src/stm32f0xx_hal_pcd.c ****       /* Configure VALID status for the Endpoint*/
 713:Drivers/STM32F0xx_HAL_Driver/Src/stm32f0xx_hal_pcd.c ****       PCD_SET_EP_RX_STATUS(hpcd->Instance, ep->num, USB_EP_RX_VALID)
 1009              		.loc 1 713 0 is_stmt 1
 1010 0198 2378     		ldrb	r3, [r4]
 1011 019a 9B00     		lsl	r3, r3, #2
 1012 019c 0168     		ldr	r1, [r0]
 1013 019e CB18     		add	r3, r1, r3
 1014 01a0 1988     		ldrh	r1, [r3]
 1015 01a2 5A4A     		ldr	r2, .L66+32
 1016 01a4 0A40     		and	r2, r1
 1017              	.LVL77:
 1018 01a6 C021     		mov	r1, #192
 1019 01a8 8901     		lsl	r1, r1, #6
 1020 01aa 4A40     		eor	r2, r1
 1021              	.LVL78:
 1022 01ac 5149     		ldr	r1, .L66+8
 1023 01ae 0A43     		orr	r2, r1
 1024              	.LVL79:
 1025 01b0 1A80     		strh	r2, [r3]
 1026              	.LVL80:
 1027 01b2 93E0     		b	.L54
 1028              	.L51:
 1029              	.LBE5:
 714:Drivers/STM32F0xx_HAL_Driver/Src/stm32f0xx_hal_pcd.c ****     }
 715:Drivers/STM32F0xx_HAL_Driver/Src/stm32f0xx_hal_pcd.c ****   }
 716:Drivers/STM32F0xx_HAL_Driver/Src/stm32f0xx_hal_pcd.c ****   /*Double Buffer*/
 717:Drivers/STM32F0xx_HAL_Driver/Src/stm32f0xx_hal_pcd.c ****   else
 718:Drivers/STM32F0xx_HAL_Driver/Src/stm32f0xx_hal_pcd.c ****   {
 719:Drivers/STM32F0xx_HAL_Driver/Src/stm32f0xx_hal_pcd.c ****     /*Set the endpoint as double buffered*/
 720:Drivers/STM32F0xx_HAL_Driver/Src/stm32f0xx_hal_pcd.c ****     PCD_SET_EP_DBUF(hpcd->Instance, ep->num);
 1030              		.loc 1 720 0
 1031 01b4 2378     		ldrb	r3, [r4]
 1032 01b6 9B00     		lsl	r3, r3, #2
 1033 01b8 0268     		ldr	r2, [r0]
 1034 01ba D318     		add	r3, r2, r3
 1035 01bc 1988     		ldrh	r1, [r3]
 1036 01be 544A     		ldr	r2, .L66+36
 1037 01c0 0A40     		and	r2, r1
 1038 01c2 5449     		ldr	r1, .L66+40
ARM GAS  /tmp/ccBeNIig.s 			page 32


 1039 01c4 0A43     		orr	r2, r1
 1040 01c6 1A80     		strh	r2, [r3]
 721:Drivers/STM32F0xx_HAL_Driver/Src/stm32f0xx_hal_pcd.c ****     /*Set buffer address for double buffered mode*/
 722:Drivers/STM32F0xx_HAL_Driver/Src/stm32f0xx_hal_pcd.c ****     PCD_SET_EP_DBUF_ADDR(hpcd->Instance, ep->num,ep->pmaaddr0, ep->pmaaddr1)
 1041              		.loc 1 722 0
 1042 01c8 0368     		ldr	r3, [r0]
 1043 01ca 5021     		mov	r1, #80
 1044 01cc 5D5A     		ldrh	r5, [r3, r1]
 1045 01ce 2278     		ldrb	r2, [r4]
 1046 01d0 D200     		lsl	r2, r2, #3
 1047 01d2 AA18     		add	r2, r5, r2
 1048 01d4 D318     		add	r3, r2, r3
 1049 01d6 8025     		mov	r5, #128
 1050 01d8 ED00     		lsl	r5, r5, #3
 1051 01da 5B19     		add	r3, r3, r5
 1052 01dc E588     		ldrh	r5, [r4, #6]
 1053 01de 0122     		mov	r2, #1
 1054 01e0 9543     		bic	r5, r2
 1055 01e2 1D80     		strh	r5, [r3]
 1056 01e4 0368     		ldr	r3, [r0]
 1057 01e6 5D5A     		ldrh	r5, [r3, r1]
 1058 01e8 2178     		ldrb	r1, [r4]
 1059 01ea C900     		lsl	r1, r1, #3
 1060 01ec 6918     		add	r1, r5, r1
 1061 01ee CB18     		add	r3, r1, r3
 1062 01f0 4349     		ldr	r1, .L66+20
 1063 01f2 5B18     		add	r3, r3, r1
 1064 01f4 2189     		ldrh	r1, [r4, #8]
 1065 01f6 9143     		bic	r1, r2
 1066 01f8 1980     		strh	r1, [r3]
 723:Drivers/STM32F0xx_HAL_Driver/Src/stm32f0xx_hal_pcd.c ****     
 724:Drivers/STM32F0xx_HAL_Driver/Src/stm32f0xx_hal_pcd.c ****     if (ep->is_in==0U)
 1067              		.loc 1 724 0
 1068 01fa 6378     		ldrb	r3, [r4, #1]
 1069 01fc 002B     		cmp	r3, #0
 1070 01fe 38D1     		bne	.L60
 725:Drivers/STM32F0xx_HAL_Driver/Src/stm32f0xx_hal_pcd.c ****     {
 726:Drivers/STM32F0xx_HAL_Driver/Src/stm32f0xx_hal_pcd.c ****       /* Clear the data toggle bits for the endpoint IN/OUT*/
 727:Drivers/STM32F0xx_HAL_Driver/Src/stm32f0xx_hal_pcd.c ****       PCD_CLEAR_RX_DTOG(hpcd->Instance, ep->num)
 1071              		.loc 1 727 0
 1072 0200 2378     		ldrb	r3, [r4]
 1073 0202 9B00     		lsl	r3, r3, #2
 1074 0204 0268     		ldr	r2, [r0]
 1075 0206 D318     		add	r3, r2, r3
 1076 0208 1A88     		ldrh	r2, [r3]
 1077 020a 5504     		lsl	r5, r2, #17
 1078 020c 04D5     		bpl	.L61
 1079              		.loc 1 727 0 is_stmt 0 discriminator 1
 1080 020e 3849     		ldr	r1, .L66+4
 1081 0210 0A40     		and	r2, r1
 1082 0212 3D49     		ldr	r1, .L66+28
 1083 0214 0A43     		orr	r2, r1
 1084 0216 1A80     		strh	r2, [r3]
 1085              	.L61:
 728:Drivers/STM32F0xx_HAL_Driver/Src/stm32f0xx_hal_pcd.c ****       PCD_CLEAR_TX_DTOG(hpcd->Instance, ep->num)
 1086              		.loc 1 728 0 is_stmt 1
 1087 0218 2378     		ldrb	r3, [r4]
ARM GAS  /tmp/ccBeNIig.s 			page 33


 1088 021a 9B00     		lsl	r3, r3, #2
 1089 021c 0168     		ldr	r1, [r0]
 1090 021e CB18     		add	r3, r1, r3
 1091 0220 1A88     		ldrh	r2, [r3]
 1092 0222 5506     		lsl	r5, r2, #25
 1093 0224 04D5     		bpl	.L62
 1094              		.loc 1 728 0 is_stmt 0 discriminator 1
 1095 0226 3249     		ldr	r1, .L66+4
 1096 0228 0A40     		and	r2, r1
 1097 022a 3349     		ldr	r1, .L66+12
 1098 022c 0A43     		orr	r2, r1
 1099 022e 1A80     		strh	r2, [r3]
 1100              	.L62:
 729:Drivers/STM32F0xx_HAL_Driver/Src/stm32f0xx_hal_pcd.c ****       
 730:Drivers/STM32F0xx_HAL_Driver/Src/stm32f0xx_hal_pcd.c ****       /* Reset value of the data toggle bits for the endpoint out*/
 731:Drivers/STM32F0xx_HAL_Driver/Src/stm32f0xx_hal_pcd.c ****       PCD_TX_DTOG(hpcd->Instance, ep->num);
 1101              		.loc 1 731 0 is_stmt 1
 1102 0230 2378     		ldrb	r3, [r4]
 1103 0232 9B00     		lsl	r3, r3, #2
 1104 0234 0168     		ldr	r1, [r0]
 1105 0236 CB18     		add	r3, r1, r3
 1106 0238 1988     		ldrh	r1, [r3]
 1107 023a 2D4A     		ldr	r2, .L66+4
 1108 023c 0A40     		and	r2, r1
 1109 023e 2E49     		ldr	r1, .L66+12
 1110 0240 0A43     		orr	r2, r1
 1111 0242 1A80     		strh	r2, [r3]
 1112              	.LBB6:
 732:Drivers/STM32F0xx_HAL_Driver/Src/stm32f0xx_hal_pcd.c ****       
 733:Drivers/STM32F0xx_HAL_Driver/Src/stm32f0xx_hal_pcd.c ****       PCD_SET_EP_RX_STATUS(hpcd->Instance, ep->num, USB_EP_RX_VALID)
 1113              		.loc 1 733 0
 1114 0244 2378     		ldrb	r3, [r4]
 1115 0246 9B00     		lsl	r3, r3, #2
 1116 0248 0268     		ldr	r2, [r0]
 1117 024a D318     		add	r3, r2, r3
 1118 024c 1988     		ldrh	r1, [r3]
 1119 024e 2F4A     		ldr	r2, .L66+32
 1120 0250 1140     		and	r1, r2
 1121              	.LVL81:
 1122 0252 C022     		mov	r2, #192
 1123 0254 9201     		lsl	r2, r2, #6
 1124 0256 5140     		eor	r1, r2
 1125              	.LVL82:
 1126 0258 2F4A     		ldr	r2, .L66+44
 1127 025a 1143     		orr	r1, r2
 1128              	.LVL83:
 1129 025c 1980     		strh	r1, [r3]
 1130              	.LVL84:
 1131              	.LBE6:
 1132              	.LBB7:
 734:Drivers/STM32F0xx_HAL_Driver/Src/stm32f0xx_hal_pcd.c ****       PCD_SET_EP_TX_STATUS(hpcd->Instance, ep->num, USB_EP_TX_DIS)
 1133              		.loc 1 734 0
 1134 025e 2378     		ldrb	r3, [r4]
 1135 0260 9B00     		lsl	r3, r3, #2
 1136 0262 0568     		ldr	r5, [r0]
 1137 0264 EB18     		add	r3, r5, r3
 1138 0266 1C88     		ldrh	r4, [r3]
ARM GAS  /tmp/ccBeNIig.s 			page 34


 1139              	.LVL85:
 1140 0268 2449     		ldr	r1, .L66+16
 1141 026a 2140     		and	r1, r4
 1142              	.LVL86:
 1143 026c 0A43     		orr	r2, r1
 1144 026e 1A80     		strh	r2, [r3]
 1145              	.LBE7:
 1146 0270 34E0     		b	.L54
 1147              	.LVL87:
 1148              	.L60:
 735:Drivers/STM32F0xx_HAL_Driver/Src/stm32f0xx_hal_pcd.c ****     }
 736:Drivers/STM32F0xx_HAL_Driver/Src/stm32f0xx_hal_pcd.c ****     else
 737:Drivers/STM32F0xx_HAL_Driver/Src/stm32f0xx_hal_pcd.c ****     {
 738:Drivers/STM32F0xx_HAL_Driver/Src/stm32f0xx_hal_pcd.c ****       /* Clear the data toggle bits for the endpoint IN/OUT*/
 739:Drivers/STM32F0xx_HAL_Driver/Src/stm32f0xx_hal_pcd.c ****       PCD_CLEAR_RX_DTOG(hpcd->Instance, ep->num)
 1149              		.loc 1 739 0
 1150 0272 2378     		ldrb	r3, [r4]
 1151 0274 9B00     		lsl	r3, r3, #2
 1152 0276 0168     		ldr	r1, [r0]
 1153 0278 CB18     		add	r3, r1, r3
 1154 027a 1A88     		ldrh	r2, [r3]
 1155 027c 5504     		lsl	r5, r2, #17
 1156 027e 04D5     		bpl	.L63
 1157              		.loc 1 739 0 is_stmt 0 discriminator 1
 1158 0280 1B49     		ldr	r1, .L66+4
 1159 0282 0A40     		and	r2, r1
 1160 0284 2049     		ldr	r1, .L66+28
 1161 0286 0A43     		orr	r2, r1
 1162 0288 1A80     		strh	r2, [r3]
 1163              	.L63:
 740:Drivers/STM32F0xx_HAL_Driver/Src/stm32f0xx_hal_pcd.c ****       PCD_CLEAR_TX_DTOG(hpcd->Instance, ep->num)
 1164              		.loc 1 740 0 is_stmt 1
 1165 028a 2378     		ldrb	r3, [r4]
 1166 028c 9B00     		lsl	r3, r3, #2
 1167 028e 0168     		ldr	r1, [r0]
 1168 0290 CB18     		add	r3, r1, r3
 1169 0292 1A88     		ldrh	r2, [r3]
 1170 0294 5506     		lsl	r5, r2, #25
 1171 0296 04D5     		bpl	.L64
 1172              		.loc 1 740 0 is_stmt 0 discriminator 1
 1173 0298 1549     		ldr	r1, .L66+4
 1174 029a 0A40     		and	r2, r1
 1175 029c 1649     		ldr	r1, .L66+12
 1176 029e 0A43     		orr	r2, r1
 1177 02a0 1A80     		strh	r2, [r3]
 1178              	.L64:
 741:Drivers/STM32F0xx_HAL_Driver/Src/stm32f0xx_hal_pcd.c ****       PCD_RX_DTOG(hpcd->Instance, ep->num);
 1179              		.loc 1 741 0 is_stmt 1
 1180 02a2 2378     		ldrb	r3, [r4]
 1181 02a4 9B00     		lsl	r3, r3, #2
 1182 02a6 0168     		ldr	r1, [r0]
 1183 02a8 CB18     		add	r3, r1, r3
 1184 02aa 1988     		ldrh	r1, [r3]
 1185 02ac 104A     		ldr	r2, .L66+4
 1186 02ae 0A40     		and	r2, r1
 1187 02b0 1549     		ldr	r1, .L66+28
 1188 02b2 0A43     		orr	r2, r1
ARM GAS  /tmp/ccBeNIig.s 			page 35


 1189 02b4 1A80     		strh	r2, [r3]
 1190              	.LBB8:
 742:Drivers/STM32F0xx_HAL_Driver/Src/stm32f0xx_hal_pcd.c ****       /* Configure DISABLE status for the Endpoint*/
 743:Drivers/STM32F0xx_HAL_Driver/Src/stm32f0xx_hal_pcd.c ****       PCD_SET_EP_TX_STATUS(hpcd->Instance, ep->num, USB_EP_TX_DIS)
 1191              		.loc 1 743 0
 1192 02b6 2378     		ldrb	r3, [r4]
 1193 02b8 9B00     		lsl	r3, r3, #2
 1194 02ba 0268     		ldr	r2, [r0]
 1195 02bc D318     		add	r3, r2, r3
 1196 02be 1988     		ldrh	r1, [r3]
 1197 02c0 0E4A     		ldr	r2, .L66+16
 1198 02c2 1140     		and	r1, r2
 1199              	.LVL88:
 1200 02c4 144A     		ldr	r2, .L66+44
 1201 02c6 1143     		orr	r1, r2
 1202              	.LVL89:
 1203 02c8 1980     		strh	r1, [r3]
 1204              	.LVL90:
 1205              	.LBE8:
 1206              	.LBB9:
 744:Drivers/STM32F0xx_HAL_Driver/Src/stm32f0xx_hal_pcd.c ****       PCD_SET_EP_RX_STATUS(hpcd->Instance, ep->num, USB_EP_RX_DIS)
 1207              		.loc 1 744 0
 1208 02ca 2378     		ldrb	r3, [r4]
 1209 02cc 9B00     		lsl	r3, r3, #2
 1210 02ce 0568     		ldr	r5, [r0]
 1211 02d0 EB18     		add	r3, r5, r3
 1212 02d2 1C88     		ldrh	r4, [r3]
 1213              	.LVL91:
 1214 02d4 0D49     		ldr	r1, .L66+32
 1215 02d6 2140     		and	r1, r4
 1216              	.LVL92:
 1217 02d8 0A43     		orr	r2, r1
 1218 02da 1A80     		strh	r2, [r3]
 1219              	.LVL93:
 1220              	.L54:
 1221              	.LBE9:
 745:Drivers/STM32F0xx_HAL_Driver/Src/stm32f0xx_hal_pcd.c ****     }
 746:Drivers/STM32F0xx_HAL_Driver/Src/stm32f0xx_hal_pcd.c ****   } 
 747:Drivers/STM32F0xx_HAL_Driver/Src/stm32f0xx_hal_pcd.c ****   
 748:Drivers/STM32F0xx_HAL_Driver/Src/stm32f0xx_hal_pcd.c ****   __HAL_UNLOCK(hpcd);   
 1222              		.loc 1 748 0
 1223 02dc 0022     		mov	r2, #0
 1224 02de F423     		mov	r3, #244
 1225 02e0 5B00     		lsl	r3, r3, #1
 1226 02e2 C254     		strb	r2, [r0, r3]
 749:Drivers/STM32F0xx_HAL_Driver/Src/stm32f0xx_hal_pcd.c ****   return ret;
 1227              		.loc 1 749 0
 1228 02e4 0020     		mov	r0, #0
 1229              	.LVL94:
 1230 02e6 00E0     		b	.L45
 1231              	.LVL95:
 1232              	.L65:
 672:Drivers/STM32F0xx_HAL_Driver/Src/stm32f0xx_hal_pcd.c ****   __HAL_LOCK(hpcd); 
 1233              		.loc 1 672 0
 1234 02e8 0220     		mov	r0, #2
 1235              	.LVL96:
 1236              	.L45:
ARM GAS  /tmp/ccBeNIig.s 			page 36


 750:Drivers/STM32F0xx_HAL_Driver/Src/stm32f0xx_hal_pcd.c **** }
 1237              		.loc 1 750 0
 1238              		@ sp needed
 1239 02ea 70BD     		pop	{r4, r5, r6, pc}
 1240              	.L67:
 1241              		.align	2
 1242              	.L66:
 1243 02ec 8F89FFFF 		.word	-30321
 1244 02f0 0F0F0000 		.word	3855
 1245 02f4 80800000 		.word	32896
 1246 02f8 C0800000 		.word	32960
 1247 02fc BF8FFFFF 		.word	-28737
 1248 0300 04040000 		.word	1028
 1249 0304 06040000 		.word	1030
 1250 0308 80C00000 		.word	49280
 1251 030c 8FBFFFFF 		.word	-16497
 1252 0310 0F0E0000 		.word	3599
 1253 0314 80810000 		.word	33152
 1254 0318 8080FFFF 		.word	-32640
 1255              		.cfi_endproc
 1256              	.LFE55:
 1258              		.section	.text.HAL_PCD_EP_Close,"ax",%progbits
 1259              		.align	2
 1260              		.global	HAL_PCD_EP_Close
 1261              		.code	16
 1262              		.thumb_func
 1264              	HAL_PCD_EP_Close:
 1265              	.LFB56:
 751:Drivers/STM32F0xx_HAL_Driver/Src/stm32f0xx_hal_pcd.c **** 
 752:Drivers/STM32F0xx_HAL_Driver/Src/stm32f0xx_hal_pcd.c **** 
 753:Drivers/STM32F0xx_HAL_Driver/Src/stm32f0xx_hal_pcd.c **** /**
 754:Drivers/STM32F0xx_HAL_Driver/Src/stm32f0xx_hal_pcd.c ****   * @brief  Deactivate an endpoint
 755:Drivers/STM32F0xx_HAL_Driver/Src/stm32f0xx_hal_pcd.c ****   * @param  hpcd: PCD handle
 756:Drivers/STM32F0xx_HAL_Driver/Src/stm32f0xx_hal_pcd.c ****   * @param  ep_addr: endpoint address
 757:Drivers/STM32F0xx_HAL_Driver/Src/stm32f0xx_hal_pcd.c ****   * @retval HAL status
 758:Drivers/STM32F0xx_HAL_Driver/Src/stm32f0xx_hal_pcd.c ****   */
 759:Drivers/STM32F0xx_HAL_Driver/Src/stm32f0xx_hal_pcd.c **** HAL_StatusTypeDef HAL_PCD_EP_Close(PCD_HandleTypeDef *hpcd, uint8_t ep_addr)
 760:Drivers/STM32F0xx_HAL_Driver/Src/stm32f0xx_hal_pcd.c **** {  
 1266              		.loc 1 760 0
 1267              		.cfi_startproc
 1268              	.LVL97:
 1269 0000 10B5     		push	{r4, lr}
 1270              	.LCFI6:
 1271              		.cfi_def_cfa_offset 8
 1272              		.cfi_offset 4, -8
 1273              		.cfi_offset 14, -4
 761:Drivers/STM32F0xx_HAL_Driver/Src/stm32f0xx_hal_pcd.c ****   PCD_EPTypeDef *ep;
 762:Drivers/STM32F0xx_HAL_Driver/Src/stm32f0xx_hal_pcd.c ****   
 763:Drivers/STM32F0xx_HAL_Driver/Src/stm32f0xx_hal_pcd.c ****   if ((ep_addr & 0x80U) == 0x80U)
 1274              		.loc 1 763 0
 1275 0002 CAB2     		uxtb	r2, r1
 1276 0004 53B2     		sxtb	r3, r2
 1277 0006 002B     		cmp	r3, #0
 1278 0008 07DA     		bge	.L69
 764:Drivers/STM32F0xx_HAL_Driver/Src/stm32f0xx_hal_pcd.c ****   {
 765:Drivers/STM32F0xx_HAL_Driver/Src/stm32f0xx_hal_pcd.c ****     ep = &hpcd->IN_ep[ep_addr & 0x7FU];
 1279              		.loc 1 765 0
ARM GAS  /tmp/ccBeNIig.s 			page 37


 1280 000a 7F23     		mov	r3, #127
 1281 000c 0B40     		and	r3, r1
 1282 000e DC00     		lsl	r4, r3, #3
 1283 0010 E31A     		sub	r3, r4, r3
 1284 0012 9B00     		lsl	r3, r3, #2
 1285 0014 2833     		add	r3, r3, #40
 1286 0016 C318     		add	r3, r0, r3
 1287              	.LVL98:
 1288 0018 07E0     		b	.L70
 1289              	.LVL99:
 1290              	.L69:
 766:Drivers/STM32F0xx_HAL_Driver/Src/stm32f0xx_hal_pcd.c ****   }
 767:Drivers/STM32F0xx_HAL_Driver/Src/stm32f0xx_hal_pcd.c ****   else
 768:Drivers/STM32F0xx_HAL_Driver/Src/stm32f0xx_hal_pcd.c ****   {
 769:Drivers/STM32F0xx_HAL_Driver/Src/stm32f0xx_hal_pcd.c ****     ep = &hpcd->OUT_ep[ep_addr & 0x7FU];
 1291              		.loc 1 769 0
 1292 001a 7F23     		mov	r3, #127
 1293 001c 0B40     		and	r3, r1
 1294 001e DC00     		lsl	r4, r3, #3
 1295 0020 E31A     		sub	r3, r4, r3
 1296 0022 9B00     		lsl	r3, r3, #2
 1297 0024 0933     		add	r3, r3, #9
 1298 0026 FF33     		add	r3, r3, #255
 1299 0028 C318     		add	r3, r0, r3
 1300              	.LVL100:
 1301              	.L70:
 770:Drivers/STM32F0xx_HAL_Driver/Src/stm32f0xx_hal_pcd.c ****   }
 771:Drivers/STM32F0xx_HAL_Driver/Src/stm32f0xx_hal_pcd.c ****   ep->num   = ep_addr & 0x7FU;
 1302              		.loc 1 771 0
 1303 002a 7F24     		mov	r4, #127
 1304 002c 2140     		and	r1, r4
 1305              	.LVL101:
 1306 002e 1970     		strb	r1, [r3]
 772:Drivers/STM32F0xx_HAL_Driver/Src/stm32f0xx_hal_pcd.c ****   
 773:Drivers/STM32F0xx_HAL_Driver/Src/stm32f0xx_hal_pcd.c ****   ep->is_in = (0x80U & ep_addr) != 0U;
 1307              		.loc 1 773 0
 1308 0030 D209     		lsr	r2, r2, #7
 1309              	.LVL102:
 1310 0032 5A70     		strb	r2, [r3, #1]
 774:Drivers/STM32F0xx_HAL_Driver/Src/stm32f0xx_hal_pcd.c ****   
 775:Drivers/STM32F0xx_HAL_Driver/Src/stm32f0xx_hal_pcd.c ****   __HAL_LOCK(hpcd); 
 1311              		.loc 1 775 0
 1312 0034 F422     		mov	r2, #244
 1313 0036 5200     		lsl	r2, r2, #1
 1314 0038 825C     		ldrb	r2, [r0, r2]
 1315 003a 012A     		cmp	r2, #1
 1316 003c 00D1     		bne	.LCB1317
 1317 003e ABE0     		b	.L82	@long jump
 1318              	.LCB1317:
 1319              		.loc 1 775 0 is_stmt 0 discriminator 2
 1320 0040 0121     		mov	r1, #1
 1321 0042 F422     		mov	r2, #244
 1322 0044 5200     		lsl	r2, r2, #1
 1323 0046 8154     		strb	r1, [r0, r2]
 776:Drivers/STM32F0xx_HAL_Driver/Src/stm32f0xx_hal_pcd.c **** 
 777:Drivers/STM32F0xx_HAL_Driver/Src/stm32f0xx_hal_pcd.c ****   if (ep->doublebuffer == 0U) 
 1324              		.loc 1 777 0 is_stmt 1 discriminator 2
ARM GAS  /tmp/ccBeNIig.s 			page 38


 1325 0048 9A7A     		ldrb	r2, [r3, #10]
 1326 004a 002A     		cmp	r2, #0
 1327 004c 30D1     		bne	.L72
 778:Drivers/STM32F0xx_HAL_Driver/Src/stm32f0xx_hal_pcd.c ****   {
 779:Drivers/STM32F0xx_HAL_Driver/Src/stm32f0xx_hal_pcd.c ****     if (ep->is_in)
 1328              		.loc 1 779 0
 1329 004e 5A78     		ldrb	r2, [r3, #1]
 1330 0050 002A     		cmp	r2, #0
 1331 0052 16D0     		beq	.L73
 780:Drivers/STM32F0xx_HAL_Driver/Src/stm32f0xx_hal_pcd.c ****     {
 781:Drivers/STM32F0xx_HAL_Driver/Src/stm32f0xx_hal_pcd.c ****       PCD_CLEAR_TX_DTOG(hpcd->Instance, ep->num)
 1332              		.loc 1 781 0
 1333 0054 1A78     		ldrb	r2, [r3]
 1334 0056 9200     		lsl	r2, r2, #2
 1335 0058 0168     		ldr	r1, [r0]
 1336 005a 8A18     		add	r2, r1, r2
 1337 005c 1188     		ldrh	r1, [r2]
 1338 005e 4C06     		lsl	r4, r1, #25
 1339 0060 04D5     		bpl	.L74
 1340              		.loc 1 781 0 is_stmt 0 discriminator 1
 1341 0062 4E4C     		ldr	r4, .L83
 1342 0064 2140     		and	r1, r4
 1343 0066 4E4C     		ldr	r4, .L83+4
 1344 0068 2143     		orr	r1, r4
 1345 006a 1180     		strh	r1, [r2]
 1346              	.L74:
 1347              	.LBB10:
 782:Drivers/STM32F0xx_HAL_Driver/Src/stm32f0xx_hal_pcd.c ****       /* Configure DISABLE status for the Endpoint*/
 783:Drivers/STM32F0xx_HAL_Driver/Src/stm32f0xx_hal_pcd.c ****       PCD_SET_EP_TX_STATUS(hpcd->Instance, ep->num, USB_EP_TX_DIS)
 1348              		.loc 1 783 0 is_stmt 1
 1349 006c 1B78     		ldrb	r3, [r3]
 1350              	.LVL103:
 1351 006e 9B00     		lsl	r3, r3, #2
 1352 0070 0168     		ldr	r1, [r0]
 1353 0072 CB18     		add	r3, r1, r3
 1354 0074 1988     		ldrh	r1, [r3]
 1355 0076 4B4A     		ldr	r2, .L83+8
 1356 0078 0A40     		and	r2, r1
 1357              	.LVL104:
 1358 007a 4B49     		ldr	r1, .L83+12
 1359 007c 0A43     		orr	r2, r1
 1360              	.LVL105:
 1361 007e 1A80     		strh	r2, [r3]
 1362              	.LVL106:
 1363              	.LBE10:
 1364 0080 84E0     		b	.L75
 1365              	.LVL107:
 1366              	.L73:
 784:Drivers/STM32F0xx_HAL_Driver/Src/stm32f0xx_hal_pcd.c ****     }
 785:Drivers/STM32F0xx_HAL_Driver/Src/stm32f0xx_hal_pcd.c ****     else
 786:Drivers/STM32F0xx_HAL_Driver/Src/stm32f0xx_hal_pcd.c ****     {
 787:Drivers/STM32F0xx_HAL_Driver/Src/stm32f0xx_hal_pcd.c ****       PCD_CLEAR_RX_DTOG(hpcd->Instance, ep->num)
 1367              		.loc 1 787 0
 1368 0082 1A78     		ldrb	r2, [r3]
 1369 0084 9200     		lsl	r2, r2, #2
 1370 0086 0468     		ldr	r4, [r0]
 1371 0088 A218     		add	r2, r4, r2
ARM GAS  /tmp/ccBeNIig.s 			page 39


 1372 008a 1188     		ldrh	r1, [r2]
 1373 008c 4C04     		lsl	r4, r1, #17
 1374 008e 04D5     		bpl	.L76
 1375              		.loc 1 787 0 is_stmt 0 discriminator 1
 1376 0090 424C     		ldr	r4, .L83
 1377 0092 2140     		and	r1, r4
 1378 0094 454C     		ldr	r4, .L83+16
 1379 0096 2143     		orr	r1, r4
 1380 0098 1180     		strh	r1, [r2]
 1381              	.L76:
 1382              	.LBB11:
 788:Drivers/STM32F0xx_HAL_Driver/Src/stm32f0xx_hal_pcd.c ****       /* Configure DISABLE status for the Endpoint*/
 789:Drivers/STM32F0xx_HAL_Driver/Src/stm32f0xx_hal_pcd.c ****       PCD_SET_EP_RX_STATUS(hpcd->Instance, ep->num, USB_EP_RX_DIS)
 1383              		.loc 1 789 0 is_stmt 1
 1384 009a 1B78     		ldrb	r3, [r3]
 1385              	.LVL108:
 1386 009c 9B00     		lsl	r3, r3, #2
 1387 009e 0168     		ldr	r1, [r0]
 1388 00a0 CB18     		add	r3, r1, r3
 1389 00a2 1988     		ldrh	r1, [r3]
 1390 00a4 424A     		ldr	r2, .L83+20
 1391 00a6 0A40     		and	r2, r1
 1392              	.LVL109:
 1393 00a8 3F49     		ldr	r1, .L83+12
 1394 00aa 0A43     		orr	r2, r1
 1395              	.LVL110:
 1396 00ac 1A80     		strh	r2, [r3]
 1397              	.LVL111:
 1398 00ae 6DE0     		b	.L75
 1399              	.LVL112:
 1400              	.L72:
 1401              	.LBE11:
 790:Drivers/STM32F0xx_HAL_Driver/Src/stm32f0xx_hal_pcd.c ****     }
 791:Drivers/STM32F0xx_HAL_Driver/Src/stm32f0xx_hal_pcd.c ****   }
 792:Drivers/STM32F0xx_HAL_Driver/Src/stm32f0xx_hal_pcd.c ****   /*Double Buffer*/
 793:Drivers/STM32F0xx_HAL_Driver/Src/stm32f0xx_hal_pcd.c ****   else
 794:Drivers/STM32F0xx_HAL_Driver/Src/stm32f0xx_hal_pcd.c ****   { 
 795:Drivers/STM32F0xx_HAL_Driver/Src/stm32f0xx_hal_pcd.c ****     if (ep->is_in==0U)
 1402              		.loc 1 795 0
 1403 00b0 5A78     		ldrb	r2, [r3, #1]
 1404 00b2 002A     		cmp	r2, #0
 1405 00b4 35D1     		bne	.L77
 796:Drivers/STM32F0xx_HAL_Driver/Src/stm32f0xx_hal_pcd.c ****     {
 797:Drivers/STM32F0xx_HAL_Driver/Src/stm32f0xx_hal_pcd.c ****       /* Clear the data toggle bits for the endpoint IN/OUT*/
 798:Drivers/STM32F0xx_HAL_Driver/Src/stm32f0xx_hal_pcd.c ****       PCD_CLEAR_RX_DTOG(hpcd->Instance, ep->num)
 1406              		.loc 1 798 0
 1407 00b6 1A78     		ldrb	r2, [r3]
 1408 00b8 9200     		lsl	r2, r2, #2
 1409 00ba 0468     		ldr	r4, [r0]
 1410 00bc A218     		add	r2, r4, r2
 1411 00be 1188     		ldrh	r1, [r2]
 1412 00c0 4C04     		lsl	r4, r1, #17
 1413 00c2 04D5     		bpl	.L78
 1414              		.loc 1 798 0 is_stmt 0 discriminator 1
 1415 00c4 354C     		ldr	r4, .L83
 1416 00c6 2140     		and	r1, r4
 1417 00c8 384C     		ldr	r4, .L83+16
ARM GAS  /tmp/ccBeNIig.s 			page 40


 1418 00ca 2143     		orr	r1, r4
 1419 00cc 1180     		strh	r1, [r2]
 1420              	.L78:
 799:Drivers/STM32F0xx_HAL_Driver/Src/stm32f0xx_hal_pcd.c ****       PCD_CLEAR_TX_DTOG(hpcd->Instance, ep->num)
 1421              		.loc 1 799 0 is_stmt 1
 1422 00ce 1A78     		ldrb	r2, [r3]
 1423 00d0 9200     		lsl	r2, r2, #2
 1424 00d2 0168     		ldr	r1, [r0]
 1425 00d4 8A18     		add	r2, r1, r2
 1426 00d6 1188     		ldrh	r1, [r2]
 1427 00d8 4C06     		lsl	r4, r1, #25
 1428 00da 04D5     		bpl	.L79
 1429              		.loc 1 799 0 is_stmt 0 discriminator 1
 1430 00dc 2F4C     		ldr	r4, .L83
 1431 00de 2140     		and	r1, r4
 1432 00e0 2F4C     		ldr	r4, .L83+4
 1433 00e2 2143     		orr	r1, r4
 1434 00e4 1180     		strh	r1, [r2]
 1435              	.L79:
 800:Drivers/STM32F0xx_HAL_Driver/Src/stm32f0xx_hal_pcd.c ****       
 801:Drivers/STM32F0xx_HAL_Driver/Src/stm32f0xx_hal_pcd.c ****       /* Reset value of the data toggle bits for the endpoint out*/
 802:Drivers/STM32F0xx_HAL_Driver/Src/stm32f0xx_hal_pcd.c ****       PCD_TX_DTOG(hpcd->Instance, ep->num);
 1436              		.loc 1 802 0 is_stmt 1
 1437 00e6 1A78     		ldrb	r2, [r3]
 1438 00e8 9200     		lsl	r2, r2, #2
 1439 00ea 0168     		ldr	r1, [r0]
 1440 00ec 8A18     		add	r2, r1, r2
 1441 00ee 1488     		ldrh	r4, [r2]
 1442 00f0 2A49     		ldr	r1, .L83
 1443 00f2 2140     		and	r1, r4
 1444 00f4 2A4C     		ldr	r4, .L83+4
 1445 00f6 2143     		orr	r1, r4
 1446 00f8 1180     		strh	r1, [r2]
 1447              	.LBB12:
 803:Drivers/STM32F0xx_HAL_Driver/Src/stm32f0xx_hal_pcd.c ****       
 804:Drivers/STM32F0xx_HAL_Driver/Src/stm32f0xx_hal_pcd.c ****       PCD_SET_EP_RX_STATUS(hpcd->Instance, ep->num, USB_EP_RX_DIS)
 1448              		.loc 1 804 0
 1449 00fa 1978     		ldrb	r1, [r3]
 1450 00fc 8900     		lsl	r1, r1, #2
 1451 00fe 0268     		ldr	r2, [r0]
 1452 0100 5118     		add	r1, r2, r1
 1453 0102 0C88     		ldrh	r4, [r1]
 1454 0104 2A4A     		ldr	r2, .L83+20
 1455 0106 1440     		and	r4, r2
 1456              	.LVL113:
 1457 0108 2A4A     		ldr	r2, .L83+24
 1458 010a 1443     		orr	r4, r2
 1459              	.LVL114:
 1460 010c 0C80     		strh	r4, [r1]
 1461              	.LVL115:
 1462              	.LBE12:
 1463              	.LBB13:
 805:Drivers/STM32F0xx_HAL_Driver/Src/stm32f0xx_hal_pcd.c ****       PCD_SET_EP_TX_STATUS(hpcd->Instance, ep->num, USB_EP_TX_DIS)
 1464              		.loc 1 805 0
 1465 010e 1B78     		ldrb	r3, [r3]
 1466              	.LVL116:
 1467 0110 9B00     		lsl	r3, r3, #2
ARM GAS  /tmp/ccBeNIig.s 			page 41


 1468 0112 0468     		ldr	r4, [r0]
 1469 0114 E318     		add	r3, r4, r3
 1470 0116 1C88     		ldrh	r4, [r3]
 1471 0118 2249     		ldr	r1, .L83+8
 1472 011a 2140     		and	r1, r4
 1473              	.LVL117:
 1474 011c 0A43     		orr	r2, r1
 1475 011e 1A80     		strh	r2, [r3]
 1476              	.LBE13:
 1477 0120 34E0     		b	.L75
 1478              	.LVL118:
 1479              	.L77:
 806:Drivers/STM32F0xx_HAL_Driver/Src/stm32f0xx_hal_pcd.c ****     }
 807:Drivers/STM32F0xx_HAL_Driver/Src/stm32f0xx_hal_pcd.c ****     else
 808:Drivers/STM32F0xx_HAL_Driver/Src/stm32f0xx_hal_pcd.c ****     {
 809:Drivers/STM32F0xx_HAL_Driver/Src/stm32f0xx_hal_pcd.c ****       /* Clear the data toggle bits for the endpoint IN/OUT*/
 810:Drivers/STM32F0xx_HAL_Driver/Src/stm32f0xx_hal_pcd.c ****       PCD_CLEAR_RX_DTOG(hpcd->Instance, ep->num)
 1480              		.loc 1 810 0
 1481 0122 1A78     		ldrb	r2, [r3]
 1482 0124 9200     		lsl	r2, r2, #2
 1483 0126 0168     		ldr	r1, [r0]
 1484 0128 8A18     		add	r2, r1, r2
 1485 012a 1188     		ldrh	r1, [r2]
 1486 012c 4C04     		lsl	r4, r1, #17
 1487 012e 04D5     		bpl	.L80
 1488              		.loc 1 810 0 is_stmt 0 discriminator 1
 1489 0130 1A4C     		ldr	r4, .L83
 1490 0132 2140     		and	r1, r4
 1491 0134 1D4C     		ldr	r4, .L83+16
 1492 0136 2143     		orr	r1, r4
 1493 0138 1180     		strh	r1, [r2]
 1494              	.L80:
 811:Drivers/STM32F0xx_HAL_Driver/Src/stm32f0xx_hal_pcd.c ****       PCD_CLEAR_TX_DTOG(hpcd->Instance, ep->num)
 1495              		.loc 1 811 0 is_stmt 1
 1496 013a 1A78     		ldrb	r2, [r3]
 1497 013c 9200     		lsl	r2, r2, #2
 1498 013e 0168     		ldr	r1, [r0]
 1499 0140 8A18     		add	r2, r1, r2
 1500 0142 1188     		ldrh	r1, [r2]
 1501 0144 4C06     		lsl	r4, r1, #25
 1502 0146 04D5     		bpl	.L81
 1503              		.loc 1 811 0 is_stmt 0 discriminator 1
 1504 0148 144C     		ldr	r4, .L83
 1505 014a 2140     		and	r1, r4
 1506 014c 144C     		ldr	r4, .L83+4
 1507 014e 2143     		orr	r1, r4
 1508 0150 1180     		strh	r1, [r2]
 1509              	.L81:
 812:Drivers/STM32F0xx_HAL_Driver/Src/stm32f0xx_hal_pcd.c ****       PCD_RX_DTOG(hpcd->Instance, ep->num);
 1510              		.loc 1 812 0 is_stmt 1
 1511 0152 1A78     		ldrb	r2, [r3]
 1512 0154 9200     		lsl	r2, r2, #2
 1513 0156 0168     		ldr	r1, [r0]
 1514 0158 8A18     		add	r2, r1, r2
 1515 015a 1488     		ldrh	r4, [r2]
 1516 015c 0F49     		ldr	r1, .L83
 1517 015e 2140     		and	r1, r4
ARM GAS  /tmp/ccBeNIig.s 			page 42


 1518 0160 124C     		ldr	r4, .L83+16
 1519 0162 2143     		orr	r1, r4
 1520 0164 1180     		strh	r1, [r2]
 1521              	.LBB14:
 813:Drivers/STM32F0xx_HAL_Driver/Src/stm32f0xx_hal_pcd.c ****       /* Configure DISABLE status for the Endpoint*/
 814:Drivers/STM32F0xx_HAL_Driver/Src/stm32f0xx_hal_pcd.c ****       PCD_SET_EP_TX_STATUS(hpcd->Instance, ep->num, USB_EP_TX_DIS)
 1522              		.loc 1 814 0
 1523 0166 1978     		ldrb	r1, [r3]
 1524 0168 8900     		lsl	r1, r1, #2
 1525 016a 0268     		ldr	r2, [r0]
 1526 016c 5118     		add	r1, r2, r1
 1527 016e 0C88     		ldrh	r4, [r1]
 1528 0170 0C4A     		ldr	r2, .L83+8
 1529 0172 1440     		and	r4, r2
 1530              	.LVL119:
 1531 0174 0F4A     		ldr	r2, .L83+24
 1532 0176 1443     		orr	r4, r2
 1533              	.LVL120:
 1534 0178 0C80     		strh	r4, [r1]
 1535              	.LVL121:
 1536              	.LBE14:
 1537              	.LBB15:
 815:Drivers/STM32F0xx_HAL_Driver/Src/stm32f0xx_hal_pcd.c ****       PCD_SET_EP_RX_STATUS(hpcd->Instance, ep->num, USB_EP_RX_DIS)
 1538              		.loc 1 815 0
 1539 017a 1B78     		ldrb	r3, [r3]
 1540              	.LVL122:
 1541 017c 9B00     		lsl	r3, r3, #2
 1542 017e 0468     		ldr	r4, [r0]
 1543 0180 E318     		add	r3, r4, r3
 1544 0182 1C88     		ldrh	r4, [r3]
 1545 0184 0A49     		ldr	r1, .L83+20
 1546 0186 2140     		and	r1, r4
 1547              	.LVL123:
 1548 0188 0A43     		orr	r2, r1
 1549 018a 1A80     		strh	r2, [r3]
 1550              	.LVL124:
 1551              	.L75:
 1552              	.LBE15:
 816:Drivers/STM32F0xx_HAL_Driver/Src/stm32f0xx_hal_pcd.c ****     }
 817:Drivers/STM32F0xx_HAL_Driver/Src/stm32f0xx_hal_pcd.c ****   } 
 818:Drivers/STM32F0xx_HAL_Driver/Src/stm32f0xx_hal_pcd.c ****   
 819:Drivers/STM32F0xx_HAL_Driver/Src/stm32f0xx_hal_pcd.c ****   __HAL_UNLOCK(hpcd);   
 1553              		.loc 1 819 0
 1554 018c 0022     		mov	r2, #0
 1555 018e F423     		mov	r3, #244
 1556 0190 5B00     		lsl	r3, r3, #1
 1557 0192 C254     		strb	r2, [r0, r3]
 820:Drivers/STM32F0xx_HAL_Driver/Src/stm32f0xx_hal_pcd.c ****   return HAL_OK;
 1558              		.loc 1 820 0
 1559 0194 0020     		mov	r0, #0
 1560              	.LVL125:
 1561 0196 00E0     		b	.L71
 1562              	.LVL126:
 1563              	.L82:
 775:Drivers/STM32F0xx_HAL_Driver/Src/stm32f0xx_hal_pcd.c ****   __HAL_LOCK(hpcd); 
 1564              		.loc 1 775 0
 1565 0198 0220     		mov	r0, #2
ARM GAS  /tmp/ccBeNIig.s 			page 43


 1566              	.LVL127:
 1567              	.L71:
 821:Drivers/STM32F0xx_HAL_Driver/Src/stm32f0xx_hal_pcd.c **** }
 1568              		.loc 1 821 0
 1569              		@ sp needed
 1570 019a 10BD     		pop	{r4, pc}
 1571              	.L84:
 1572              		.align	2
 1573              	.L83:
 1574 019c 0F0F0000 		.word	3855
 1575 01a0 C0800000 		.word	32960
 1576 01a4 BF8FFFFF 		.word	-28737
 1577 01a8 80800000 		.word	32896
 1578 01ac 80C00000 		.word	49280
 1579 01b0 8FBFFFFF 		.word	-16497
 1580 01b4 8080FFFF 		.word	-32640
 1581              		.cfi_endproc
 1582              	.LFE56:
 1584              		.section	.text.HAL_PCD_EP_Receive,"ax",%progbits
 1585              		.align	2
 1586              		.global	HAL_PCD_EP_Receive
 1587              		.code	16
 1588              		.thumb_func
 1590              	HAL_PCD_EP_Receive:
 1591              	.LFB57:
 822:Drivers/STM32F0xx_HAL_Driver/Src/stm32f0xx_hal_pcd.c **** 
 823:Drivers/STM32F0xx_HAL_Driver/Src/stm32f0xx_hal_pcd.c **** 
 824:Drivers/STM32F0xx_HAL_Driver/Src/stm32f0xx_hal_pcd.c **** /**
 825:Drivers/STM32F0xx_HAL_Driver/Src/stm32f0xx_hal_pcd.c ****   * @brief  Receive an amount of data  
 826:Drivers/STM32F0xx_HAL_Driver/Src/stm32f0xx_hal_pcd.c ****   * @param  hpcd: PCD handle
 827:Drivers/STM32F0xx_HAL_Driver/Src/stm32f0xx_hal_pcd.c ****   * @param  ep_addr: endpoint address
 828:Drivers/STM32F0xx_HAL_Driver/Src/stm32f0xx_hal_pcd.c ****   * @param  pBuf: pointer to the reception buffer   
 829:Drivers/STM32F0xx_HAL_Driver/Src/stm32f0xx_hal_pcd.c ****   * @param  len: amount of data to be received
 830:Drivers/STM32F0xx_HAL_Driver/Src/stm32f0xx_hal_pcd.c ****   * @retval HAL status
 831:Drivers/STM32F0xx_HAL_Driver/Src/stm32f0xx_hal_pcd.c ****   */
 832:Drivers/STM32F0xx_HAL_Driver/Src/stm32f0xx_hal_pcd.c **** HAL_StatusTypeDef HAL_PCD_EP_Receive(PCD_HandleTypeDef *hpcd, uint8_t ep_addr, uint8_t *pBuf, uint3
 833:Drivers/STM32F0xx_HAL_Driver/Src/stm32f0xx_hal_pcd.c **** {
 1592              		.loc 1 833 0
 1593              		.cfi_startproc
 1594              	.LVL128:
 1595 0000 30B5     		push	{r4, r5, lr}
 1596              	.LCFI7:
 1597              		.cfi_def_cfa_offset 12
 1598              		.cfi_offset 4, -12
 1599              		.cfi_offset 5, -8
 1600              		.cfi_offset 14, -4
 834:Drivers/STM32F0xx_HAL_Driver/Src/stm32f0xx_hal_pcd.c ****   
 835:Drivers/STM32F0xx_HAL_Driver/Src/stm32f0xx_hal_pcd.c ****  PCD_EPTypeDef *ep;
 836:Drivers/STM32F0xx_HAL_Driver/Src/stm32f0xx_hal_pcd.c ****   
 837:Drivers/STM32F0xx_HAL_Driver/Src/stm32f0xx_hal_pcd.c ****   ep = &hpcd->OUT_ep[ep_addr & 0x7FU];
 1601              		.loc 1 837 0
 1602 0002 7F24     		mov	r4, #127
 1603 0004 2140     		and	r1, r4
 1604              	.LVL129:
 1605 0006 CC00     		lsl	r4, r1, #3
 1606 0008 641A     		sub	r4, r4, r1
 1607 000a A400     		lsl	r4, r4, #2
ARM GAS  /tmp/ccBeNIig.s 			page 44


 1608 000c 0934     		add	r4, r4, #9
 1609 000e FF34     		add	r4, r4, #255
 1610 0010 0419     		add	r4, r0, r4
 1611              	.LVL130:
 838:Drivers/STM32F0xx_HAL_Driver/Src/stm32f0xx_hal_pcd.c ****   
 839:Drivers/STM32F0xx_HAL_Driver/Src/stm32f0xx_hal_pcd.c ****   /*setup and start the Xfer */
 840:Drivers/STM32F0xx_HAL_Driver/Src/stm32f0xx_hal_pcd.c ****   ep->xfer_buff = pBuf;  
 1612              		.loc 1 840 0
 1613 0012 2261     		str	r2, [r4, #16]
 841:Drivers/STM32F0xx_HAL_Driver/Src/stm32f0xx_hal_pcd.c ****   ep->xfer_len = len;
 1614              		.loc 1 841 0
 1615 0014 6361     		str	r3, [r4, #20]
 842:Drivers/STM32F0xx_HAL_Driver/Src/stm32f0xx_hal_pcd.c ****   ep->xfer_count = 0U;
 1616              		.loc 1 842 0
 1617 0016 0023     		mov	r3, #0
 1618              	.LVL131:
 1619 0018 A361     		str	r3, [r4, #24]
 843:Drivers/STM32F0xx_HAL_Driver/Src/stm32f0xx_hal_pcd.c ****   ep->is_in = 0U;
 1620              		.loc 1 843 0
 1621 001a 6370     		strb	r3, [r4, #1]
 844:Drivers/STM32F0xx_HAL_Driver/Src/stm32f0xx_hal_pcd.c ****   ep->num = ep_addr & 0x7FU;
 1622              		.loc 1 844 0
 1623 001c 2170     		strb	r1, [r4]
 845:Drivers/STM32F0xx_HAL_Driver/Src/stm32f0xx_hal_pcd.c ****    
 846:Drivers/STM32F0xx_HAL_Driver/Src/stm32f0xx_hal_pcd.c ****   __HAL_LOCK(hpcd); 
 1624              		.loc 1 846 0
 1625 001e F423     		mov	r3, #244
 1626 0020 5B00     		lsl	r3, r3, #1
 1627 0022 C35C     		ldrb	r3, [r0, r3]
 1628 0024 012B     		cmp	r3, #1
 1629 0026 00D1     		bne	.LCB1678
 1630 0028 A1E0     		b	.L103	@long jump
 1631              	.LCB1678:
 1632              		.loc 1 846 0 is_stmt 0 discriminator 2
 1633 002a 0122     		mov	r2, #1
 1634              	.LVL132:
 1635 002c F423     		mov	r3, #244
 1636 002e 5B00     		lsl	r3, r3, #1
 1637 0030 C254     		strb	r2, [r0, r3]
 1638              	.LVL133:
 847:Drivers/STM32F0xx_HAL_Driver/Src/stm32f0xx_hal_pcd.c ****    
 848:Drivers/STM32F0xx_HAL_Driver/Src/stm32f0xx_hal_pcd.c ****   /* Multi packet transfer*/
 849:Drivers/STM32F0xx_HAL_Driver/Src/stm32f0xx_hal_pcd.c ****   if (ep->xfer_len > ep->maxpacket)
 1639              		.loc 1 849 0 is_stmt 1 discriminator 2
 1640 0032 6369     		ldr	r3, [r4, #20]
 1641 0034 E268     		ldr	r2, [r4, #12]
 1642 0036 9342     		cmp	r3, r2
 1643 0038 03D9     		bls	.L87
 1644              	.LVL134:
 850:Drivers/STM32F0xx_HAL_Driver/Src/stm32f0xx_hal_pcd.c ****   {
 851:Drivers/STM32F0xx_HAL_Driver/Src/stm32f0xx_hal_pcd.c ****     len=ep->maxpacket;
 852:Drivers/STM32F0xx_HAL_Driver/Src/stm32f0xx_hal_pcd.c ****     ep->xfer_len-=len; 
 1645              		.loc 1 852 0
 1646 003a 9B1A     		sub	r3, r3, r2
 1647 003c 6361     		str	r3, [r4, #20]
 851:Drivers/STM32F0xx_HAL_Driver/Src/stm32f0xx_hal_pcd.c ****     len=ep->maxpacket;
 1648              		.loc 1 851 0
ARM GAS  /tmp/ccBeNIig.s 			page 45


 1649 003e 131C     		mov	r3, r2
 1650 0040 01E0     		b	.L88
 1651              	.LVL135:
 1652              	.L87:
 853:Drivers/STM32F0xx_HAL_Driver/Src/stm32f0xx_hal_pcd.c ****   }
 854:Drivers/STM32F0xx_HAL_Driver/Src/stm32f0xx_hal_pcd.c ****   else
 855:Drivers/STM32F0xx_HAL_Driver/Src/stm32f0xx_hal_pcd.c ****   {
 856:Drivers/STM32F0xx_HAL_Driver/Src/stm32f0xx_hal_pcd.c ****     len=ep->xfer_len;
 857:Drivers/STM32F0xx_HAL_Driver/Src/stm32f0xx_hal_pcd.c ****     ep->xfer_len =0U;
 1653              		.loc 1 857 0
 1654 0042 0022     		mov	r2, #0
 1655 0044 6261     		str	r2, [r4, #20]
 1656              	.L88:
 858:Drivers/STM32F0xx_HAL_Driver/Src/stm32f0xx_hal_pcd.c ****   }
 859:Drivers/STM32F0xx_HAL_Driver/Src/stm32f0xx_hal_pcd.c ****   
 860:Drivers/STM32F0xx_HAL_Driver/Src/stm32f0xx_hal_pcd.c ****   /* configure and validate Rx endpoint */
 861:Drivers/STM32F0xx_HAL_Driver/Src/stm32f0xx_hal_pcd.c ****   if (ep->doublebuffer == 0) 
 1657              		.loc 1 861 0
 1658 0046 A27A     		ldrb	r2, [r4, #10]
 1659 0048 002A     		cmp	r2, #0
 1660 004a 1FD1     		bne	.L89
 1661              	.LBB16:
 862:Drivers/STM32F0xx_HAL_Driver/Src/stm32f0xx_hal_pcd.c ****   {
 863:Drivers/STM32F0xx_HAL_Driver/Src/stm32f0xx_hal_pcd.c ****     /*Set RX buffer count*/
 864:Drivers/STM32F0xx_HAL_Driver/Src/stm32f0xx_hal_pcd.c ****     PCD_SET_EP_RX_CNT(hpcd->Instance, ep->num, len)
 1662              		.loc 1 864 0
 1663 004c 0268     		ldr	r2, [r0]
 1664 004e 5021     		mov	r1, #80
 1665 0050 555A     		ldrh	r5, [r2, r1]
 1666 0052 2178     		ldrb	r1, [r4]
 1667 0054 C900     		lsl	r1, r1, #3
 1668 0056 6918     		add	r1, r5, r1
 1669 0058 8A18     		add	r2, r1, r2
 1670 005a 4649     		ldr	r1, .L104
 1671 005c 5218     		add	r2, r2, r1
 1672              	.LVL136:
 1673              	.LBB17:
 1674 005e 3E2B     		cmp	r3, #62
 1675 0060 0BD9     		bls	.L90
 1676              		.loc 1 864 0 is_stmt 0 discriminator 1
 1677 0062 5909     		lsr	r1, r3, #5
 1678 0064 89B2     		uxth	r1, r1
 1679              	.LVL137:
 1680 0066 DD06     		lsl	r5, r3, #27
 1681 0068 01D1     		bne	.L91
 1682 006a 0139     		sub	r1, r1, #1
 1683              	.LVL138:
 1684 006c 89B2     		uxth	r1, r1
 1685              	.LVL139:
 1686              	.L91:
 1687              		.loc 1 864 0 discriminator 2
 1688 006e 8902     		lsl	r1, r1, #10
 1689              	.LVL140:
 1690 0070 8023     		mov	r3, #128
 1691              	.LVL141:
 1692 0072 1B02     		lsl	r3, r3, #8
 1693 0074 1943     		orr	r1, r3
ARM GAS  /tmp/ccBeNIig.s 			page 46


 1694 0076 1180     		strh	r1, [r2]
 1695 0078 66E0     		b	.L92
 1696              	.LVL142:
 1697              	.L90:
 1698 007a 5908     		lsr	r1, r3, #1
 1699 007c 89B2     		uxth	r1, r1
 1700              	.LVL143:
 1701 007e DD07     		lsl	r5, r3, #31
 1702 0080 01D5     		bpl	.L93
 1703              		.loc 1 864 0 discriminator 1
 1704 0082 0131     		add	r1, r1, #1
 1705              	.LVL144:
 1706 0084 89B2     		uxth	r1, r1
 1707              	.LVL145:
 1708              	.L93:
 1709              		.loc 1 864 0 discriminator 2
 1710 0086 8902     		lsl	r1, r1, #10
 1711              	.LVL146:
 1712 0088 1180     		strh	r1, [r2]
 1713 008a 5DE0     		b	.L92
 1714              	.LVL147:
 1715              	.L89:
 1716              	.LBE17:
 1717              	.LBE16:
 865:Drivers/STM32F0xx_HAL_Driver/Src/stm32f0xx_hal_pcd.c ****   }
 866:Drivers/STM32F0xx_HAL_Driver/Src/stm32f0xx_hal_pcd.c ****   else
 867:Drivers/STM32F0xx_HAL_Driver/Src/stm32f0xx_hal_pcd.c ****   {
 868:Drivers/STM32F0xx_HAL_Driver/Src/stm32f0xx_hal_pcd.c ****     /*Set the Double buffer counter*/
 869:Drivers/STM32F0xx_HAL_Driver/Src/stm32f0xx_hal_pcd.c ****     PCD_SET_EP_DBUF_CNT(hpcd->Instance, ep->num, ep->is_in, len)
 1718              		.loc 1 869 0 is_stmt 1
 1719 008c 6278     		ldrb	r2, [r4, #1]
 1720 008e 002A     		cmp	r2, #0
 1721 0090 1FD1     		bne	.L94
 1722              	.LBB18:
 1723              		.loc 1 869 0 is_stmt 0 discriminator 1
 1724 0092 0268     		ldr	r2, [r0]
 1725 0094 5021     		mov	r1, #80
 1726 0096 555A     		ldrh	r5, [r2, r1]
 1727 0098 2178     		ldrb	r1, [r4]
 1728 009a C900     		lsl	r1, r1, #3
 1729 009c 6918     		add	r1, r5, r1
 1730 009e 8A18     		add	r2, r1, r2
 1731 00a0 3549     		ldr	r1, .L104+4
 1732 00a2 5218     		add	r2, r2, r1
 1733              	.LVL148:
 1734              	.LBB19:
 1735 00a4 3E2B     		cmp	r3, #62
 1736 00a6 0BD9     		bls	.L95
 1737 00a8 5909     		lsr	r1, r3, #5
 1738 00aa 89B2     		uxth	r1, r1
 1739              	.LVL149:
 1740 00ac DD06     		lsl	r5, r3, #27
 1741 00ae 01D1     		bne	.L96
 1742 00b0 0139     		sub	r1, r1, #1
 1743              	.LVL150:
 1744 00b2 89B2     		uxth	r1, r1
 1745              	.LVL151:
ARM GAS  /tmp/ccBeNIig.s 			page 47


 1746              	.L96:
 1747              		.loc 1 869 0 discriminator 2
 1748 00b4 8902     		lsl	r1, r1, #10
 1749              	.LVL152:
 1750 00b6 8025     		mov	r5, #128
 1751 00b8 2D02     		lsl	r5, r5, #8
 1752 00ba 2943     		orr	r1, r5
 1753 00bc 1180     		strh	r1, [r2]
 1754 00be 14E0     		b	.L97
 1755              	.L95:
 1756 00c0 5908     		lsr	r1, r3, #1
 1757 00c2 89B2     		uxth	r1, r1
 1758              	.LVL153:
 1759 00c4 DD07     		lsl	r5, r3, #31
 1760 00c6 01D5     		bpl	.L98
 1761              		.loc 1 869 0 discriminator 1
 1762 00c8 0131     		add	r1, r1, #1
 1763              	.LVL154:
 1764 00ca 89B2     		uxth	r1, r1
 1765              	.LVL155:
 1766              	.L98:
 1767              		.loc 1 869 0 discriminator 2
 1768 00cc 8902     		lsl	r1, r1, #10
 1769              	.LVL156:
 1770 00ce 1180     		strh	r1, [r2]
 1771 00d0 0BE0     		b	.L97
 1772              	.LVL157:
 1773              	.L94:
 1774              	.LBE19:
 1775              	.LBE18:
 1776 00d2 012A     		cmp	r2, #1
 1777 00d4 09D1     		bne	.L97
 1778              		.loc 1 869 0 discriminator 1
 1779 00d6 0268     		ldr	r2, [r0]
 1780 00d8 5021     		mov	r1, #80
 1781 00da 555A     		ldrh	r5, [r2, r1]
 1782 00dc 2178     		ldrb	r1, [r4]
 1783 00de C900     		lsl	r1, r1, #3
 1784 00e0 6918     		add	r1, r5, r1
 1785 00e2 8A18     		add	r2, r1, r2
 1786 00e4 2449     		ldr	r1, .L104+4
 1787 00e6 5218     		add	r2, r2, r1
 1788 00e8 1380     		strh	r3, [r2]
 1789              	.L97:
 1790              		.loc 1 869 0 discriminator 2
 1791 00ea 6278     		ldrb	r2, [r4, #1]
 1792 00ec 002A     		cmp	r2, #0
 1793 00ee 1FD1     		bne	.L99
 1794              	.LBB20:
 1795              		.loc 1 869 0 discriminator 1
 1796 00f0 0268     		ldr	r2, [r0]
 1797 00f2 5021     		mov	r1, #80
 1798 00f4 555A     		ldrh	r5, [r2, r1]
 1799 00f6 2178     		ldrb	r1, [r4]
 1800 00f8 C900     		lsl	r1, r1, #3
 1801 00fa 6918     		add	r1, r5, r1
 1802 00fc 8A18     		add	r2, r1, r2
ARM GAS  /tmp/ccBeNIig.s 			page 48


 1803 00fe 1D4D     		ldr	r5, .L104
 1804 0100 5219     		add	r2, r2, r5
 1805              	.LVL158:
 1806              	.LBB21:
 1807 0102 3E2B     		cmp	r3, #62
 1808 0104 0BD9     		bls	.L100
 1809 0106 5909     		lsr	r1, r3, #5
 1810 0108 89B2     		uxth	r1, r1
 1811              	.LVL159:
 1812 010a DD06     		lsl	r5, r3, #27
 1813 010c 01D1     		bne	.L101
 1814 010e 0139     		sub	r1, r1, #1
 1815              	.LVL160:
 1816 0110 89B2     		uxth	r1, r1
 1817              	.LVL161:
 1818              	.L101:
 1819              		.loc 1 869 0 discriminator 2
 1820 0112 8902     		lsl	r1, r1, #10
 1821              	.LVL162:
 1822 0114 8023     		mov	r3, #128
 1823              	.LVL163:
 1824 0116 1B02     		lsl	r3, r3, #8
 1825 0118 1943     		orr	r1, r3
 1826 011a 1180     		strh	r1, [r2]
 1827 011c 14E0     		b	.L92
 1828              	.LVL164:
 1829              	.L100:
 1830 011e 5908     		lsr	r1, r3, #1
 1831 0120 89B2     		uxth	r1, r1
 1832              	.LVL165:
 1833 0122 DD07     		lsl	r5, r3, #31
 1834 0124 01D5     		bpl	.L102
 1835              		.loc 1 869 0 discriminator 1
 1836 0126 0131     		add	r1, r1, #1
 1837              	.LVL166:
 1838 0128 89B2     		uxth	r1, r1
 1839              	.LVL167:
 1840              	.L102:
 1841              		.loc 1 869 0 discriminator 2
 1842 012a 8902     		lsl	r1, r1, #10
 1843              	.LVL168:
 1844 012c 1180     		strh	r1, [r2]
 1845 012e 0BE0     		b	.L92
 1846              	.LVL169:
 1847              	.L99:
 1848              	.LBE21:
 1849              	.LBE20:
 1850 0130 012A     		cmp	r2, #1
 1851 0132 09D1     		bne	.L92
 1852              		.loc 1 869 0 discriminator 1
 1853 0134 0268     		ldr	r2, [r0]
 1854 0136 5021     		mov	r1, #80
 1855 0138 555A     		ldrh	r5, [r2, r1]
 1856 013a 2178     		ldrb	r1, [r4]
 1857 013c C900     		lsl	r1, r1, #3
 1858 013e 6918     		add	r1, r5, r1
 1859 0140 8A18     		add	r2, r1, r2
ARM GAS  /tmp/ccBeNIig.s 			page 49


 1860 0142 0C49     		ldr	r1, .L104
 1861 0144 5218     		add	r2, r2, r1
 1862 0146 1380     		strh	r3, [r2]
 1863              	.LVL170:
 1864              	.L92:
 1865              	.LBB22:
 870:Drivers/STM32F0xx_HAL_Driver/Src/stm32f0xx_hal_pcd.c ****   } 
 871:Drivers/STM32F0xx_HAL_Driver/Src/stm32f0xx_hal_pcd.c ****   
 872:Drivers/STM32F0xx_HAL_Driver/Src/stm32f0xx_hal_pcd.c ****   PCD_SET_EP_RX_STATUS(hpcd->Instance, ep->num, USB_EP_RX_VALID)
 1866              		.loc 1 872 0 is_stmt 1
 1867 0148 2378     		ldrb	r3, [r4]
 1868 014a 9B00     		lsl	r3, r3, #2
 1869 014c 0268     		ldr	r2, [r0]
 1870 014e D318     		add	r3, r2, r3
 1871 0150 1988     		ldrh	r1, [r3]
 1872 0152 0A4A     		ldr	r2, .L104+8
 1873 0154 0A40     		and	r2, r1
 1874              	.LVL171:
 1875 0156 C021     		mov	r1, #192
 1876 0158 8901     		lsl	r1, r1, #6
 1877 015a 4A40     		eor	r2, r1
 1878              	.LVL172:
 1879 015c 0849     		ldr	r1, .L104+12
 1880 015e 0A43     		orr	r2, r1
 1881              	.LVL173:
 1882 0160 1A80     		strh	r2, [r3]
 1883              	.LVL174:
 1884              	.LBE22:
 873:Drivers/STM32F0xx_HAL_Driver/Src/stm32f0xx_hal_pcd.c ****   
 874:Drivers/STM32F0xx_HAL_Driver/Src/stm32f0xx_hal_pcd.c ****   __HAL_UNLOCK(hpcd); 
 1885              		.loc 1 874 0
 1886 0162 0022     		mov	r2, #0
 1887 0164 F423     		mov	r3, #244
 1888 0166 5B00     		lsl	r3, r3, #1
 1889 0168 C254     		strb	r2, [r0, r3]
 875:Drivers/STM32F0xx_HAL_Driver/Src/stm32f0xx_hal_pcd.c ****   
 876:Drivers/STM32F0xx_HAL_Driver/Src/stm32f0xx_hal_pcd.c ****   return HAL_OK;
 1890              		.loc 1 876 0
 1891 016a 0020     		mov	r0, #0
 1892              	.LVL175:
 1893 016c 00E0     		b	.L86
 1894              	.LVL176:
 1895              	.L103:
 846:Drivers/STM32F0xx_HAL_Driver/Src/stm32f0xx_hal_pcd.c ****   __HAL_LOCK(hpcd); 
 1896              		.loc 1 846 0
 1897 016e 0220     		mov	r0, #2
 1898              	.LVL177:
 1899              	.L86:
 877:Drivers/STM32F0xx_HAL_Driver/Src/stm32f0xx_hal_pcd.c **** }
 1900              		.loc 1 877 0
 1901              		@ sp needed
 1902              	.LVL178:
 1903 0170 30BD     		pop	{r4, r5, pc}
 1904              	.L105:
 1905 0172 C046     		.align	2
 1906              	.L104:
 1907 0174 06040000 		.word	1030
ARM GAS  /tmp/ccBeNIig.s 			page 50


 1908 0178 02040000 		.word	1026
 1909 017c 8FBFFFFF 		.word	-16497
 1910 0180 80800000 		.word	32896
 1911              		.cfi_endproc
 1912              	.LFE57:
 1914              		.section	.text.HAL_PCD_EP_GetRxCount,"ax",%progbits
 1915              		.align	2
 1916              		.global	HAL_PCD_EP_GetRxCount
 1917              		.code	16
 1918              		.thumb_func
 1920              	HAL_PCD_EP_GetRxCount:
 1921              	.LFB58:
 878:Drivers/STM32F0xx_HAL_Driver/Src/stm32f0xx_hal_pcd.c **** 
 879:Drivers/STM32F0xx_HAL_Driver/Src/stm32f0xx_hal_pcd.c **** /**
 880:Drivers/STM32F0xx_HAL_Driver/Src/stm32f0xx_hal_pcd.c ****   * @brief  Get Received Data Size
 881:Drivers/STM32F0xx_HAL_Driver/Src/stm32f0xx_hal_pcd.c ****   * @param  hpcd: PCD handle
 882:Drivers/STM32F0xx_HAL_Driver/Src/stm32f0xx_hal_pcd.c ****   * @param  ep_addr: endpoint address
 883:Drivers/STM32F0xx_HAL_Driver/Src/stm32f0xx_hal_pcd.c ****   * @retval Data Size
 884:Drivers/STM32F0xx_HAL_Driver/Src/stm32f0xx_hal_pcd.c ****   */
 885:Drivers/STM32F0xx_HAL_Driver/Src/stm32f0xx_hal_pcd.c **** uint16_t HAL_PCD_EP_GetRxCount(PCD_HandleTypeDef *hpcd, uint8_t ep_addr)
 886:Drivers/STM32F0xx_HAL_Driver/Src/stm32f0xx_hal_pcd.c **** {
 1922              		.loc 1 886 0
 1923              		.cfi_startproc
 1924              	.LVL179:
 887:Drivers/STM32F0xx_HAL_Driver/Src/stm32f0xx_hal_pcd.c ****   return hpcd->OUT_ep[ep_addr & 0x7FU].xfer_count;
 1925              		.loc 1 887 0
 1926 0000 7F23     		mov	r3, #127
 1927 0002 1940     		and	r1, r3
 1928              	.LVL180:
 1929 0004 CB00     		lsl	r3, r1, #3
 1930 0006 591A     		sub	r1, r3, r1
 1931 0008 8900     		lsl	r1, r1, #2
 1932 000a 4118     		add	r1, r0, r1
 1933 000c 2131     		add	r1, r1, #33
 1934 000e FF31     		add	r1, r1, #255
 1935 0010 0888     		ldrh	r0, [r1]
 1936              	.LVL181:
 888:Drivers/STM32F0xx_HAL_Driver/Src/stm32f0xx_hal_pcd.c **** }
 1937              		.loc 1 888 0
 1938              		@ sp needed
 1939 0012 7047     		bx	lr
 1940              		.cfi_endproc
 1941              	.LFE58:
 1943              		.section	.text.HAL_PCD_EP_SetStall,"ax",%progbits
 1944              		.align	2
 1945              		.global	HAL_PCD_EP_SetStall
 1946              		.code	16
 1947              		.thumb_func
 1949              	HAL_PCD_EP_SetStall:
 1950              	.LFB60:
 889:Drivers/STM32F0xx_HAL_Driver/Src/stm32f0xx_hal_pcd.c **** /**
 890:Drivers/STM32F0xx_HAL_Driver/Src/stm32f0xx_hal_pcd.c ****   * @brief  Send an amount of data  
 891:Drivers/STM32F0xx_HAL_Driver/Src/stm32f0xx_hal_pcd.c ****   * @param  hpcd: PCD handle
 892:Drivers/STM32F0xx_HAL_Driver/Src/stm32f0xx_hal_pcd.c ****   * @param  ep_addr: endpoint address
 893:Drivers/STM32F0xx_HAL_Driver/Src/stm32f0xx_hal_pcd.c ****   * @param  pBuf: pointer to the transmission buffer   
 894:Drivers/STM32F0xx_HAL_Driver/Src/stm32f0xx_hal_pcd.c ****   * @param  len: amount of data to be sent
 895:Drivers/STM32F0xx_HAL_Driver/Src/stm32f0xx_hal_pcd.c ****   * @retval HAL status
ARM GAS  /tmp/ccBeNIig.s 			page 51


 896:Drivers/STM32F0xx_HAL_Driver/Src/stm32f0xx_hal_pcd.c ****   */
 897:Drivers/STM32F0xx_HAL_Driver/Src/stm32f0xx_hal_pcd.c **** HAL_StatusTypeDef HAL_PCD_EP_Transmit(PCD_HandleTypeDef *hpcd, uint8_t ep_addr, uint8_t *pBuf, uint
 898:Drivers/STM32F0xx_HAL_Driver/Src/stm32f0xx_hal_pcd.c **** {
 899:Drivers/STM32F0xx_HAL_Driver/Src/stm32f0xx_hal_pcd.c ****   PCD_EPTypeDef *ep;
 900:Drivers/STM32F0xx_HAL_Driver/Src/stm32f0xx_hal_pcd.c ****   uint16_t pmabuffer = 0U;
 901:Drivers/STM32F0xx_HAL_Driver/Src/stm32f0xx_hal_pcd.c ****     
 902:Drivers/STM32F0xx_HAL_Driver/Src/stm32f0xx_hal_pcd.c ****   ep = &hpcd->IN_ep[ep_addr & 0x7FU];
 903:Drivers/STM32F0xx_HAL_Driver/Src/stm32f0xx_hal_pcd.c ****   
 904:Drivers/STM32F0xx_HAL_Driver/Src/stm32f0xx_hal_pcd.c ****   /*setup and start the Xfer */
 905:Drivers/STM32F0xx_HAL_Driver/Src/stm32f0xx_hal_pcd.c ****   ep->xfer_buff = pBuf;  
 906:Drivers/STM32F0xx_HAL_Driver/Src/stm32f0xx_hal_pcd.c ****   ep->xfer_len = len;
 907:Drivers/STM32F0xx_HAL_Driver/Src/stm32f0xx_hal_pcd.c ****   ep->xfer_count = 0U;
 908:Drivers/STM32F0xx_HAL_Driver/Src/stm32f0xx_hal_pcd.c ****   ep->is_in = 1U;
 909:Drivers/STM32F0xx_HAL_Driver/Src/stm32f0xx_hal_pcd.c ****   ep->num = ep_addr & 0x7FU;
 910:Drivers/STM32F0xx_HAL_Driver/Src/stm32f0xx_hal_pcd.c ****   
 911:Drivers/STM32F0xx_HAL_Driver/Src/stm32f0xx_hal_pcd.c ****   __HAL_LOCK(hpcd); 
 912:Drivers/STM32F0xx_HAL_Driver/Src/stm32f0xx_hal_pcd.c ****   
 913:Drivers/STM32F0xx_HAL_Driver/Src/stm32f0xx_hal_pcd.c ****   /*Multi packet transfer*/
 914:Drivers/STM32F0xx_HAL_Driver/Src/stm32f0xx_hal_pcd.c ****   if (ep->xfer_len > ep->maxpacket)
 915:Drivers/STM32F0xx_HAL_Driver/Src/stm32f0xx_hal_pcd.c ****   {
 916:Drivers/STM32F0xx_HAL_Driver/Src/stm32f0xx_hal_pcd.c ****     len=ep->maxpacket;
 917:Drivers/STM32F0xx_HAL_Driver/Src/stm32f0xx_hal_pcd.c ****     ep->xfer_len-=len; 
 918:Drivers/STM32F0xx_HAL_Driver/Src/stm32f0xx_hal_pcd.c ****   }
 919:Drivers/STM32F0xx_HAL_Driver/Src/stm32f0xx_hal_pcd.c ****   else
 920:Drivers/STM32F0xx_HAL_Driver/Src/stm32f0xx_hal_pcd.c ****   {  
 921:Drivers/STM32F0xx_HAL_Driver/Src/stm32f0xx_hal_pcd.c ****     len=ep->xfer_len;
 922:Drivers/STM32F0xx_HAL_Driver/Src/stm32f0xx_hal_pcd.c ****     ep->xfer_len =0U;
 923:Drivers/STM32F0xx_HAL_Driver/Src/stm32f0xx_hal_pcd.c ****   }
 924:Drivers/STM32F0xx_HAL_Driver/Src/stm32f0xx_hal_pcd.c ****   
 925:Drivers/STM32F0xx_HAL_Driver/Src/stm32f0xx_hal_pcd.c ****   /* configure and validate Tx endpoint */
 926:Drivers/STM32F0xx_HAL_Driver/Src/stm32f0xx_hal_pcd.c ****   if (ep->doublebuffer == 0U) 
 927:Drivers/STM32F0xx_HAL_Driver/Src/stm32f0xx_hal_pcd.c ****   {
 928:Drivers/STM32F0xx_HAL_Driver/Src/stm32f0xx_hal_pcd.c ****     PCD_WritePMA(hpcd->Instance, ep->xfer_buff, ep->pmaadress, len);
 929:Drivers/STM32F0xx_HAL_Driver/Src/stm32f0xx_hal_pcd.c ****     PCD_SET_EP_TX_CNT(hpcd->Instance, ep->num, len);
 930:Drivers/STM32F0xx_HAL_Driver/Src/stm32f0xx_hal_pcd.c ****   }
 931:Drivers/STM32F0xx_HAL_Driver/Src/stm32f0xx_hal_pcd.c ****   else
 932:Drivers/STM32F0xx_HAL_Driver/Src/stm32f0xx_hal_pcd.c ****   {
 933:Drivers/STM32F0xx_HAL_Driver/Src/stm32f0xx_hal_pcd.c ****     /*Write the data to the USB endpoint*/
 934:Drivers/STM32F0xx_HAL_Driver/Src/stm32f0xx_hal_pcd.c ****     if ((PCD_GET_ENDPOINT(hpcd->Instance, ep->num)& USB_EP_DTOG_TX) == USB_EP_DTOG_TX)
 935:Drivers/STM32F0xx_HAL_Driver/Src/stm32f0xx_hal_pcd.c ****     {
 936:Drivers/STM32F0xx_HAL_Driver/Src/stm32f0xx_hal_pcd.c ****       /*Set the Double buffer counter for pmabuffer1*/
 937:Drivers/STM32F0xx_HAL_Driver/Src/stm32f0xx_hal_pcd.c ****       PCD_SET_EP_DBUF1_CNT(hpcd->Instance, ep->num, ep->is_in, len)
 938:Drivers/STM32F0xx_HAL_Driver/Src/stm32f0xx_hal_pcd.c ****       pmabuffer = ep->pmaaddr1;
 939:Drivers/STM32F0xx_HAL_Driver/Src/stm32f0xx_hal_pcd.c ****     }
 940:Drivers/STM32F0xx_HAL_Driver/Src/stm32f0xx_hal_pcd.c ****     else
 941:Drivers/STM32F0xx_HAL_Driver/Src/stm32f0xx_hal_pcd.c ****     {
 942:Drivers/STM32F0xx_HAL_Driver/Src/stm32f0xx_hal_pcd.c ****       /*Set the Double buffer counter for pmabuffer0*/
 943:Drivers/STM32F0xx_HAL_Driver/Src/stm32f0xx_hal_pcd.c ****       PCD_SET_EP_DBUF0_CNT(hpcd->Instance, ep->num, ep->is_in, len)
 944:Drivers/STM32F0xx_HAL_Driver/Src/stm32f0xx_hal_pcd.c ****       pmabuffer = ep->pmaaddr0;
 945:Drivers/STM32F0xx_HAL_Driver/Src/stm32f0xx_hal_pcd.c ****     }
 946:Drivers/STM32F0xx_HAL_Driver/Src/stm32f0xx_hal_pcd.c **** 
 947:Drivers/STM32F0xx_HAL_Driver/Src/stm32f0xx_hal_pcd.c ****     PCD_WritePMA(hpcd->Instance, ep->xfer_buff, pmabuffer, len);
 948:Drivers/STM32F0xx_HAL_Driver/Src/stm32f0xx_hal_pcd.c ****     PCD_FreeUserBuffer(hpcd->Instance, ep->num, ep->is_in)
 949:Drivers/STM32F0xx_HAL_Driver/Src/stm32f0xx_hal_pcd.c ****   }
 950:Drivers/STM32F0xx_HAL_Driver/Src/stm32f0xx_hal_pcd.c **** 
 951:Drivers/STM32F0xx_HAL_Driver/Src/stm32f0xx_hal_pcd.c ****   PCD_SET_EP_TX_STATUS(hpcd->Instance, ep->num, USB_EP_TX_VALID)
 952:Drivers/STM32F0xx_HAL_Driver/Src/stm32f0xx_hal_pcd.c ****   
ARM GAS  /tmp/ccBeNIig.s 			page 52


 953:Drivers/STM32F0xx_HAL_Driver/Src/stm32f0xx_hal_pcd.c ****   __HAL_UNLOCK(hpcd);
 954:Drivers/STM32F0xx_HAL_Driver/Src/stm32f0xx_hal_pcd.c ****      
 955:Drivers/STM32F0xx_HAL_Driver/Src/stm32f0xx_hal_pcd.c ****   return HAL_OK;
 956:Drivers/STM32F0xx_HAL_Driver/Src/stm32f0xx_hal_pcd.c **** }
 957:Drivers/STM32F0xx_HAL_Driver/Src/stm32f0xx_hal_pcd.c **** 
 958:Drivers/STM32F0xx_HAL_Driver/Src/stm32f0xx_hal_pcd.c **** /**
 959:Drivers/STM32F0xx_HAL_Driver/Src/stm32f0xx_hal_pcd.c ****   * @brief  Set a STALL condition over an endpoint
 960:Drivers/STM32F0xx_HAL_Driver/Src/stm32f0xx_hal_pcd.c ****   * @param  hpcd: PCD handle
 961:Drivers/STM32F0xx_HAL_Driver/Src/stm32f0xx_hal_pcd.c ****   * @param  ep_addr: endpoint address
 962:Drivers/STM32F0xx_HAL_Driver/Src/stm32f0xx_hal_pcd.c ****   * @retval HAL status
 963:Drivers/STM32F0xx_HAL_Driver/Src/stm32f0xx_hal_pcd.c ****   */
 964:Drivers/STM32F0xx_HAL_Driver/Src/stm32f0xx_hal_pcd.c **** HAL_StatusTypeDef HAL_PCD_EP_SetStall(PCD_HandleTypeDef *hpcd, uint8_t ep_addr)
 965:Drivers/STM32F0xx_HAL_Driver/Src/stm32f0xx_hal_pcd.c **** {
 1951              		.loc 1 965 0
 1952              		.cfi_startproc
 1953              	.LVL182:
 1954 0000 10B5     		push	{r4, lr}
 1955              	.LCFI8:
 1956              		.cfi_def_cfa_offset 8
 1957              		.cfi_offset 4, -8
 1958              		.cfi_offset 14, -4
 966:Drivers/STM32F0xx_HAL_Driver/Src/stm32f0xx_hal_pcd.c ****   PCD_EPTypeDef *ep;
 967:Drivers/STM32F0xx_HAL_Driver/Src/stm32f0xx_hal_pcd.c ****    
 968:Drivers/STM32F0xx_HAL_Driver/Src/stm32f0xx_hal_pcd.c ****   __HAL_LOCK(hpcd); 
 1959              		.loc 1 968 0
 1960 0002 F423     		mov	r3, #244
 1961 0004 5B00     		lsl	r3, r3, #1
 1962 0006 C35C     		ldrb	r3, [r0, r3]
 1963 0008 012B     		cmp	r3, #1
 1964 000a 4AD0     		beq	.L114
 1965              		.loc 1 968 0 is_stmt 0 discriminator 2
 1966 000c 0122     		mov	r2, #1
 1967 000e F423     		mov	r3, #244
 1968 0010 5B00     		lsl	r3, r3, #1
 1969 0012 C254     		strb	r2, [r0, r3]
 969:Drivers/STM32F0xx_HAL_Driver/Src/stm32f0xx_hal_pcd.c ****    
 970:Drivers/STM32F0xx_HAL_Driver/Src/stm32f0xx_hal_pcd.c ****   if ((0x80U & ep_addr) == 0x80U)
 1970              		.loc 1 970 0 is_stmt 1 discriminator 2
 1971 0014 CAB2     		uxtb	r2, r1
 1972 0016 53B2     		sxtb	r3, r2
 1973 0018 002B     		cmp	r3, #0
 1974 001a 07DA     		bge	.L109
 971:Drivers/STM32F0xx_HAL_Driver/Src/stm32f0xx_hal_pcd.c ****   {
 972:Drivers/STM32F0xx_HAL_Driver/Src/stm32f0xx_hal_pcd.c ****     ep = &hpcd->IN_ep[ep_addr & 0x7FU];
 1975              		.loc 1 972 0
 1976 001c 7F23     		mov	r3, #127
 1977 001e 0B40     		and	r3, r1
 1978 0020 DC00     		lsl	r4, r3, #3
 1979 0022 E31A     		sub	r3, r4, r3
 1980 0024 9B00     		lsl	r3, r3, #2
 1981 0026 2833     		add	r3, r3, #40
 1982 0028 C318     		add	r3, r0, r3
 1983              	.LVL183:
 1984 002a 05E0     		b	.L110
 1985              	.LVL184:
 1986              	.L109:
 973:Drivers/STM32F0xx_HAL_Driver/Src/stm32f0xx_hal_pcd.c ****   }
ARM GAS  /tmp/ccBeNIig.s 			page 53


 974:Drivers/STM32F0xx_HAL_Driver/Src/stm32f0xx_hal_pcd.c ****   else
 975:Drivers/STM32F0xx_HAL_Driver/Src/stm32f0xx_hal_pcd.c ****   {
 976:Drivers/STM32F0xx_HAL_Driver/Src/stm32f0xx_hal_pcd.c ****     ep = &hpcd->OUT_ep[ep_addr];
 1987              		.loc 1 976 0
 1988 002c CB00     		lsl	r3, r1, #3
 1989 002e 5B1A     		sub	r3, r3, r1
 1990 0030 9B00     		lsl	r3, r3, #2
 1991 0032 0933     		add	r3, r3, #9
 1992 0034 FF33     		add	r3, r3, #255
 1993 0036 C318     		add	r3, r0, r3
 1994              	.LVL185:
 1995              	.L110:
 977:Drivers/STM32F0xx_HAL_Driver/Src/stm32f0xx_hal_pcd.c ****   }
 978:Drivers/STM32F0xx_HAL_Driver/Src/stm32f0xx_hal_pcd.c ****   
 979:Drivers/STM32F0xx_HAL_Driver/Src/stm32f0xx_hal_pcd.c ****   ep->is_stall = 1;
 1996              		.loc 1 979 0
 1997 0038 0124     		mov	r4, #1
 1998 003a 9C70     		strb	r4, [r3, #2]
 980:Drivers/STM32F0xx_HAL_Driver/Src/stm32f0xx_hal_pcd.c ****   ep->num   = ep_addr & 0x7FU;
 1999              		.loc 1 980 0
 2000 003c 7F24     		mov	r4, #127
 2001 003e 2140     		and	r1, r4
 2002              	.LVL186:
 2003 0040 1970     		strb	r1, [r3]
 981:Drivers/STM32F0xx_HAL_Driver/Src/stm32f0xx_hal_pcd.c ****   ep->is_in = ((ep_addr & 0x80U) == 0x80U);
 2004              		.loc 1 981 0
 2005 0042 D209     		lsr	r2, r2, #7
 2006              	.LVL187:
 2007 0044 5A70     		strb	r2, [r3, #1]
 982:Drivers/STM32F0xx_HAL_Driver/Src/stm32f0xx_hal_pcd.c ****   
 983:Drivers/STM32F0xx_HAL_Driver/Src/stm32f0xx_hal_pcd.c ****   if (ep->num == 0U)
 2008              		.loc 1 983 0
 2009 0046 0029     		cmp	r1, #0
 2010 0048 0BD1     		bne	.L111
 2011              	.LBB23:
 984:Drivers/STM32F0xx_HAL_Driver/Src/stm32f0xx_hal_pcd.c ****   {
 985:Drivers/STM32F0xx_HAL_Driver/Src/stm32f0xx_hal_pcd.c ****     /* This macro sets STALL status for RX & TX*/ 
 986:Drivers/STM32F0xx_HAL_Driver/Src/stm32f0xx_hal_pcd.c ****     PCD_SET_EP_TXRX_STATUS(hpcd->Instance, ep->num, USB_EP_RX_STALL, USB_EP_TX_STALL)
 2012              		.loc 1 986 0
 2013 004a 8900     		lsl	r1, r1, #2
 2014 004c 0368     		ldr	r3, [r0]
 2015              	.LVL188:
 2016 004e 5918     		add	r1, r3, r1
 2017 0050 0A88     		ldrh	r2, [r1]
 2018 0052 154B     		ldr	r3, .L115
 2019 0054 1340     		and	r3, r2
 2020              	.LVL189:
 2021 0056 154A     		ldr	r2, .L115+4
 2022 0058 5340     		eor	r3, r2
 2023              	.LVL190:
 2024 005a 154A     		ldr	r2, .L115+8
 2025 005c 1343     		orr	r3, r2
 2026              	.LVL191:
 2027 005e 0B80     		strh	r3, [r1]
 2028              	.LVL192:
 2029              	.LBE23:
 2030 0060 19E0     		b	.L112
ARM GAS  /tmp/ccBeNIig.s 			page 54


 2031              	.LVL193:
 2032              	.L111:
 987:Drivers/STM32F0xx_HAL_Driver/Src/stm32f0xx_hal_pcd.c ****   }
 988:Drivers/STM32F0xx_HAL_Driver/Src/stm32f0xx_hal_pcd.c ****   else
 989:Drivers/STM32F0xx_HAL_Driver/Src/stm32f0xx_hal_pcd.c ****   {
 990:Drivers/STM32F0xx_HAL_Driver/Src/stm32f0xx_hal_pcd.c ****     if (ep->is_in)
 2033              		.loc 1 990 0
 2034 0062 002A     		cmp	r2, #0
 2035 0064 0BD0     		beq	.L113
 2036              	.LBB24:
 991:Drivers/STM32F0xx_HAL_Driver/Src/stm32f0xx_hal_pcd.c ****     {
 992:Drivers/STM32F0xx_HAL_Driver/Src/stm32f0xx_hal_pcd.c ****       PCD_SET_EP_TX_STATUS(hpcd->Instance, ep->num , USB_EP_TX_STALL)
 2037              		.loc 1 992 0
 2038 0066 8900     		lsl	r1, r1, #2
 2039 0068 0368     		ldr	r3, [r0]
 2040              	.LVL194:
 2041 006a 5918     		add	r1, r3, r1
 2042 006c 0A88     		ldrh	r2, [r1]
 2043 006e 114B     		ldr	r3, .L115+12
 2044 0070 1340     		and	r3, r2
 2045              	.LVL195:
 2046 0072 1022     		mov	r2, #16
 2047 0074 5340     		eor	r3, r2
 2048              	.LVL196:
 2049 0076 0E4A     		ldr	r2, .L115+8
 2050 0078 1343     		orr	r3, r2
 2051              	.LVL197:
 2052 007a 0B80     		strh	r3, [r1]
 2053              	.LVL198:
 2054              	.LBE24:
 2055 007c 0BE0     		b	.L112
 2056              	.LVL199:
 2057              	.L113:
 2058              	.LBB25:
 993:Drivers/STM32F0xx_HAL_Driver/Src/stm32f0xx_hal_pcd.c ****     }
 994:Drivers/STM32F0xx_HAL_Driver/Src/stm32f0xx_hal_pcd.c ****     else
 995:Drivers/STM32F0xx_HAL_Driver/Src/stm32f0xx_hal_pcd.c ****     {
 996:Drivers/STM32F0xx_HAL_Driver/Src/stm32f0xx_hal_pcd.c ****       PCD_SET_EP_RX_STATUS(hpcd->Instance, ep->num , USB_EP_RX_STALL)
 2059              		.loc 1 996 0
 2060 007e 8900     		lsl	r1, r1, #2
 2061 0080 0368     		ldr	r3, [r0]
 2062              	.LVL200:
 2063 0082 5918     		add	r1, r3, r1
 2064 0084 0A88     		ldrh	r2, [r1]
 2065 0086 0C4B     		ldr	r3, .L115+16
 2066 0088 1340     		and	r3, r2
 2067              	.LVL201:
 2068 008a 8022     		mov	r2, #128
 2069 008c 5201     		lsl	r2, r2, #5
 2070 008e 5340     		eor	r3, r2
 2071              	.LVL202:
 2072 0090 074A     		ldr	r2, .L115+8
 2073 0092 1343     		orr	r3, r2
 2074              	.LVL203:
 2075 0094 0B80     		strh	r3, [r1]
 2076              	.LVL204:
 2077              	.L112:
ARM GAS  /tmp/ccBeNIig.s 			page 55


 2078              	.LBE25:
 997:Drivers/STM32F0xx_HAL_Driver/Src/stm32f0xx_hal_pcd.c ****     }
 998:Drivers/STM32F0xx_HAL_Driver/Src/stm32f0xx_hal_pcd.c ****   }
 999:Drivers/STM32F0xx_HAL_Driver/Src/stm32f0xx_hal_pcd.c ****   __HAL_UNLOCK(hpcd); 
 2079              		.loc 1 999 0
 2080 0096 0022     		mov	r2, #0
 2081 0098 F423     		mov	r3, #244
 2082 009a 5B00     		lsl	r3, r3, #1
 2083 009c C254     		strb	r2, [r0, r3]
1000:Drivers/STM32F0xx_HAL_Driver/Src/stm32f0xx_hal_pcd.c ****   
1001:Drivers/STM32F0xx_HAL_Driver/Src/stm32f0xx_hal_pcd.c ****   return HAL_OK;
 2084              		.loc 1 1001 0
 2085 009e 0020     		mov	r0, #0
 2086              	.LVL205:
 2087 00a0 00E0     		b	.L108
 2088              	.LVL206:
 2089              	.L114:
 968:Drivers/STM32F0xx_HAL_Driver/Src/stm32f0xx_hal_pcd.c ****   __HAL_LOCK(hpcd); 
 2090              		.loc 1 968 0
 2091 00a2 0220     		mov	r0, #2
 2092              	.LVL207:
 2093              	.L108:
1002:Drivers/STM32F0xx_HAL_Driver/Src/stm32f0xx_hal_pcd.c **** }
 2094              		.loc 1 1002 0
 2095              		@ sp needed
 2096 00a4 10BD     		pop	{r4, pc}
 2097              	.L116:
 2098 00a6 C046     		.align	2
 2099              	.L115:
 2100 00a8 BFBFFFFF 		.word	-16449
 2101 00ac 10100000 		.word	4112
 2102 00b0 80800000 		.word	32896
 2103 00b4 BF8FFFFF 		.word	-28737
 2104 00b8 8FBFFFFF 		.word	-16497
 2105              		.cfi_endproc
 2106              	.LFE60:
 2108              		.section	.text.HAL_PCD_EP_ClrStall,"ax",%progbits
 2109              		.align	2
 2110              		.global	HAL_PCD_EP_ClrStall
 2111              		.code	16
 2112              		.thumb_func
 2114              	HAL_PCD_EP_ClrStall:
 2115              	.LFB61:
1003:Drivers/STM32F0xx_HAL_Driver/Src/stm32f0xx_hal_pcd.c **** 
1004:Drivers/STM32F0xx_HAL_Driver/Src/stm32f0xx_hal_pcd.c **** /**
1005:Drivers/STM32F0xx_HAL_Driver/Src/stm32f0xx_hal_pcd.c ****   * @brief  Clear a STALL condition over in an endpoint
1006:Drivers/STM32F0xx_HAL_Driver/Src/stm32f0xx_hal_pcd.c ****   * @param  hpcd: PCD handle
1007:Drivers/STM32F0xx_HAL_Driver/Src/stm32f0xx_hal_pcd.c ****   * @param  ep_addr: endpoint address
1008:Drivers/STM32F0xx_HAL_Driver/Src/stm32f0xx_hal_pcd.c ****   * @retval HAL status
1009:Drivers/STM32F0xx_HAL_Driver/Src/stm32f0xx_hal_pcd.c ****   */
1010:Drivers/STM32F0xx_HAL_Driver/Src/stm32f0xx_hal_pcd.c **** HAL_StatusTypeDef HAL_PCD_EP_ClrStall(PCD_HandleTypeDef *hpcd, uint8_t ep_addr)
1011:Drivers/STM32F0xx_HAL_Driver/Src/stm32f0xx_hal_pcd.c **** {
 2116              		.loc 1 1011 0
 2117              		.cfi_startproc
 2118              	.LVL208:
 2119 0000 10B5     		push	{r4, lr}
 2120              	.LCFI9:
ARM GAS  /tmp/ccBeNIig.s 			page 56


 2121              		.cfi_def_cfa_offset 8
 2122              		.cfi_offset 4, -8
 2123              		.cfi_offset 14, -4
1012:Drivers/STM32F0xx_HAL_Driver/Src/stm32f0xx_hal_pcd.c ****   PCD_EPTypeDef *ep;
1013:Drivers/STM32F0xx_HAL_Driver/Src/stm32f0xx_hal_pcd.c ****   
1014:Drivers/STM32F0xx_HAL_Driver/Src/stm32f0xx_hal_pcd.c ****   if ((0x80U & ep_addr) == 0x80U)
 2124              		.loc 1 1014 0
 2125 0002 CAB2     		uxtb	r2, r1
 2126 0004 53B2     		sxtb	r3, r2
 2127 0006 002B     		cmp	r3, #0
 2128 0008 07DA     		bge	.L118
1015:Drivers/STM32F0xx_HAL_Driver/Src/stm32f0xx_hal_pcd.c ****   {
1016:Drivers/STM32F0xx_HAL_Driver/Src/stm32f0xx_hal_pcd.c ****     ep = &hpcd->IN_ep[ep_addr & 0x7FU];
 2129              		.loc 1 1016 0
 2130 000a 7F23     		mov	r3, #127
 2131 000c 0B40     		and	r3, r1
 2132 000e DC00     		lsl	r4, r3, #3
 2133 0010 E31A     		sub	r3, r4, r3
 2134 0012 9B00     		lsl	r3, r3, #2
 2135 0014 2833     		add	r3, r3, #40
 2136 0016 C318     		add	r3, r0, r3
 2137              	.LVL209:
 2138 0018 05E0     		b	.L119
 2139              	.LVL210:
 2140              	.L118:
1017:Drivers/STM32F0xx_HAL_Driver/Src/stm32f0xx_hal_pcd.c ****   }
1018:Drivers/STM32F0xx_HAL_Driver/Src/stm32f0xx_hal_pcd.c ****   else
1019:Drivers/STM32F0xx_HAL_Driver/Src/stm32f0xx_hal_pcd.c ****   {
1020:Drivers/STM32F0xx_HAL_Driver/Src/stm32f0xx_hal_pcd.c ****     ep = &hpcd->OUT_ep[ep_addr];
 2141              		.loc 1 1020 0
 2142 001a CB00     		lsl	r3, r1, #3
 2143 001c 5B1A     		sub	r3, r3, r1
 2144 001e 9B00     		lsl	r3, r3, #2
 2145 0020 0933     		add	r3, r3, #9
 2146 0022 FF33     		add	r3, r3, #255
 2147 0024 C318     		add	r3, r0, r3
 2148              	.LVL211:
 2149              	.L119:
1021:Drivers/STM32F0xx_HAL_Driver/Src/stm32f0xx_hal_pcd.c ****   }
1022:Drivers/STM32F0xx_HAL_Driver/Src/stm32f0xx_hal_pcd.c ****   
1023:Drivers/STM32F0xx_HAL_Driver/Src/stm32f0xx_hal_pcd.c ****   ep->is_stall = 0U;
 2150              		.loc 1 1023 0
 2151 0026 0024     		mov	r4, #0
 2152 0028 9C70     		strb	r4, [r3, #2]
1024:Drivers/STM32F0xx_HAL_Driver/Src/stm32f0xx_hal_pcd.c ****   ep->num   = ep_addr & 0x7FU;
 2153              		.loc 1 1024 0
 2154 002a 7F24     		mov	r4, #127
 2155 002c 2140     		and	r1, r4
 2156              	.LVL212:
 2157 002e 1970     		strb	r1, [r3]
1025:Drivers/STM32F0xx_HAL_Driver/Src/stm32f0xx_hal_pcd.c ****   ep->is_in = ((ep_addr & 0x80U) == 0x80U);
 2158              		.loc 1 1025 0
 2159 0030 D209     		lsr	r2, r2, #7
 2160              	.LVL213:
 2161 0032 5A70     		strb	r2, [r3, #1]
1026:Drivers/STM32F0xx_HAL_Driver/Src/stm32f0xx_hal_pcd.c ****   
1027:Drivers/STM32F0xx_HAL_Driver/Src/stm32f0xx_hal_pcd.c ****   __HAL_LOCK(hpcd); 
ARM GAS  /tmp/ccBeNIig.s 			page 57


 2162              		.loc 1 1027 0
 2163 0034 F422     		mov	r2, #244
 2164 0036 5200     		lsl	r2, r2, #1
 2165 0038 825C     		ldrb	r2, [r0, r2]
 2166 003a 012A     		cmp	r2, #1
 2167 003c 3ED0     		beq	.L125
 2168              		.loc 1 1027 0 is_stmt 0 discriminator 2
 2169 003e 0121     		mov	r1, #1
 2170 0040 F422     		mov	r2, #244
 2171 0042 5200     		lsl	r2, r2, #1
 2172 0044 8154     		strb	r1, [r0, r2]
1028:Drivers/STM32F0xx_HAL_Driver/Src/stm32f0xx_hal_pcd.c ****   
1029:Drivers/STM32F0xx_HAL_Driver/Src/stm32f0xx_hal_pcd.c ****   if (ep->is_in)
 2173              		.loc 1 1029 0 is_stmt 1 discriminator 2
 2174 0046 5A78     		ldrb	r2, [r3, #1]
 2175 0048 002A     		cmp	r2, #0
 2176 004a 18D0     		beq	.L121
1030:Drivers/STM32F0xx_HAL_Driver/Src/stm32f0xx_hal_pcd.c ****   {
1031:Drivers/STM32F0xx_HAL_Driver/Src/stm32f0xx_hal_pcd.c ****     PCD_CLEAR_TX_DTOG(hpcd->Instance, ep->num)
 2177              		.loc 1 1031 0
 2178 004c 1A78     		ldrb	r2, [r3]
 2179 004e 9200     		lsl	r2, r2, #2
 2180 0050 0168     		ldr	r1, [r0]
 2181 0052 8A18     		add	r2, r1, r2
 2182 0054 1188     		ldrh	r1, [r2]
 2183 0056 4C06     		lsl	r4, r1, #25
 2184 0058 04D5     		bpl	.L122
 2185              		.loc 1 1031 0 is_stmt 0 discriminator 1
 2186 005a 194C     		ldr	r4, .L126
 2187 005c 2140     		and	r1, r4
 2188 005e 194C     		ldr	r4, .L126+4
 2189 0060 2143     		orr	r1, r4
 2190 0062 1180     		strh	r1, [r2]
 2191              	.L122:
 2192              	.LBB26:
1032:Drivers/STM32F0xx_HAL_Driver/Src/stm32f0xx_hal_pcd.c ****     PCD_SET_EP_TX_STATUS(hpcd->Instance, ep->num, USB_EP_TX_VALID)
 2193              		.loc 1 1032 0 is_stmt 1
 2194 0064 1B78     		ldrb	r3, [r3]
 2195              	.LVL214:
 2196 0066 9B00     		lsl	r3, r3, #2
 2197 0068 0168     		ldr	r1, [r0]
 2198 006a CB18     		add	r3, r1, r3
 2199 006c 1988     		ldrh	r1, [r3]
 2200 006e 164A     		ldr	r2, .L126+8
 2201 0070 0A40     		and	r2, r1
 2202              	.LVL215:
 2203 0072 3021     		mov	r1, #48
 2204 0074 4A40     		eor	r2, r1
 2205              	.LVL216:
 2206 0076 1549     		ldr	r1, .L126+12
 2207 0078 0A43     		orr	r2, r1
 2208              	.LVL217:
 2209 007a 1A80     		strh	r2, [r3]
 2210              	.LVL218:
 2211              	.LBE26:
 2212 007c 18E0     		b	.L123
 2213              	.LVL219:
ARM GAS  /tmp/ccBeNIig.s 			page 58


 2214              	.L121:
1033:Drivers/STM32F0xx_HAL_Driver/Src/stm32f0xx_hal_pcd.c ****   }
1034:Drivers/STM32F0xx_HAL_Driver/Src/stm32f0xx_hal_pcd.c ****   else
1035:Drivers/STM32F0xx_HAL_Driver/Src/stm32f0xx_hal_pcd.c ****   {
1036:Drivers/STM32F0xx_HAL_Driver/Src/stm32f0xx_hal_pcd.c ****     PCD_CLEAR_RX_DTOG(hpcd->Instance, ep->num)
 2215              		.loc 1 1036 0
 2216 007e 1A78     		ldrb	r2, [r3]
 2217 0080 9200     		lsl	r2, r2, #2
 2218 0082 0468     		ldr	r4, [r0]
 2219 0084 A218     		add	r2, r4, r2
 2220 0086 1188     		ldrh	r1, [r2]
 2221 0088 4C04     		lsl	r4, r1, #17
 2222 008a 04D5     		bpl	.L124
 2223              		.loc 1 1036 0 is_stmt 0 discriminator 1
 2224 008c 0C4C     		ldr	r4, .L126
 2225 008e 2140     		and	r1, r4
 2226 0090 0F4C     		ldr	r4, .L126+16
 2227 0092 2143     		orr	r1, r4
 2228 0094 1180     		strh	r1, [r2]
 2229              	.L124:
 2230              	.LBB27:
1037:Drivers/STM32F0xx_HAL_Driver/Src/stm32f0xx_hal_pcd.c ****     PCD_SET_EP_RX_STATUS(hpcd->Instance, ep->num, USB_EP_RX_VALID)
 2231              		.loc 1 1037 0 is_stmt 1
 2232 0096 1B78     		ldrb	r3, [r3]
 2233              	.LVL220:
 2234 0098 9B00     		lsl	r3, r3, #2
 2235 009a 0168     		ldr	r1, [r0]
 2236 009c CB18     		add	r3, r1, r3
 2237 009e 1988     		ldrh	r1, [r3]
 2238 00a0 0C4A     		ldr	r2, .L126+20
 2239 00a2 0A40     		and	r2, r1
 2240              	.LVL221:
 2241 00a4 C021     		mov	r1, #192
 2242 00a6 8901     		lsl	r1, r1, #6
 2243 00a8 4A40     		eor	r2, r1
 2244              	.LVL222:
 2245 00aa 0849     		ldr	r1, .L126+12
 2246 00ac 0A43     		orr	r2, r1
 2247              	.LVL223:
 2248 00ae 1A80     		strh	r2, [r3]
 2249              	.LVL224:
 2250              	.L123:
 2251              	.LBE27:
1038:Drivers/STM32F0xx_HAL_Driver/Src/stm32f0xx_hal_pcd.c ****   }
1039:Drivers/STM32F0xx_HAL_Driver/Src/stm32f0xx_hal_pcd.c ****   __HAL_UNLOCK(hpcd); 
 2252              		.loc 1 1039 0
 2253 00b0 0022     		mov	r2, #0
 2254 00b2 F423     		mov	r3, #244
 2255 00b4 5B00     		lsl	r3, r3, #1
 2256 00b6 C254     		strb	r2, [r0, r3]
1040:Drivers/STM32F0xx_HAL_Driver/Src/stm32f0xx_hal_pcd.c ****     
1041:Drivers/STM32F0xx_HAL_Driver/Src/stm32f0xx_hal_pcd.c ****   return HAL_OK;
 2257              		.loc 1 1041 0
 2258 00b8 0020     		mov	r0, #0
 2259              	.LVL225:
 2260 00ba 00E0     		b	.L120
 2261              	.LVL226:
ARM GAS  /tmp/ccBeNIig.s 			page 59


 2262              	.L125:
1027:Drivers/STM32F0xx_HAL_Driver/Src/stm32f0xx_hal_pcd.c ****   __HAL_LOCK(hpcd); 
 2263              		.loc 1 1027 0
 2264 00bc 0220     		mov	r0, #2
 2265              	.LVL227:
 2266              	.L120:
1042:Drivers/STM32F0xx_HAL_Driver/Src/stm32f0xx_hal_pcd.c **** }
 2267              		.loc 1 1042 0
 2268              		@ sp needed
 2269 00be 10BD     		pop	{r4, pc}
 2270              	.L127:
 2271              		.align	2
 2272              	.L126:
 2273 00c0 0F0F0000 		.word	3855
 2274 00c4 C0800000 		.word	32960
 2275 00c8 BF8FFFFF 		.word	-28737
 2276 00cc 80800000 		.word	32896
 2277 00d0 80C00000 		.word	49280
 2278 00d4 8FBFFFFF 		.word	-16497
 2279              		.cfi_endproc
 2280              	.LFE61:
 2282              		.section	.text.HAL_PCD_EP_Flush,"ax",%progbits
 2283              		.align	2
 2284              		.global	HAL_PCD_EP_Flush
 2285              		.code	16
 2286              		.thumb_func
 2288              	HAL_PCD_EP_Flush:
 2289              	.LFB62:
1043:Drivers/STM32F0xx_HAL_Driver/Src/stm32f0xx_hal_pcd.c **** 
1044:Drivers/STM32F0xx_HAL_Driver/Src/stm32f0xx_hal_pcd.c **** /**
1045:Drivers/STM32F0xx_HAL_Driver/Src/stm32f0xx_hal_pcd.c ****   * @brief  Flush an endpoint
1046:Drivers/STM32F0xx_HAL_Driver/Src/stm32f0xx_hal_pcd.c ****   * @param  hpcd: PCD handle
1047:Drivers/STM32F0xx_HAL_Driver/Src/stm32f0xx_hal_pcd.c ****   * @param  ep_addr: endpoint address
1048:Drivers/STM32F0xx_HAL_Driver/Src/stm32f0xx_hal_pcd.c ****   * @retval HAL status
1049:Drivers/STM32F0xx_HAL_Driver/Src/stm32f0xx_hal_pcd.c ****   */
1050:Drivers/STM32F0xx_HAL_Driver/Src/stm32f0xx_hal_pcd.c **** HAL_StatusTypeDef HAL_PCD_EP_Flush(PCD_HandleTypeDef *hpcd, uint8_t ep_addr)
1051:Drivers/STM32F0xx_HAL_Driver/Src/stm32f0xx_hal_pcd.c **** { 
 2290              		.loc 1 1051 0
 2291              		.cfi_startproc
 2292              	.LVL228:
1052:Drivers/STM32F0xx_HAL_Driver/Src/stm32f0xx_hal_pcd.c ****   return HAL_OK;
1053:Drivers/STM32F0xx_HAL_Driver/Src/stm32f0xx_hal_pcd.c **** }
 2293              		.loc 1 1053 0
 2294 0000 0020     		mov	r0, #0
 2295              	.LVL229:
 2296              		@ sp needed
 2297 0002 7047     		bx	lr
 2298              		.cfi_endproc
 2299              	.LFE62:
 2301              		.section	.text.HAL_PCD_ActivateRemoteWakeup,"ax",%progbits
 2302              		.align	2
 2303              		.global	HAL_PCD_ActivateRemoteWakeup
 2304              		.code	16
 2305              		.thumb_func
 2307              	HAL_PCD_ActivateRemoteWakeup:
 2308              	.LFB63:
1054:Drivers/STM32F0xx_HAL_Driver/Src/stm32f0xx_hal_pcd.c **** 
ARM GAS  /tmp/ccBeNIig.s 			page 60


1055:Drivers/STM32F0xx_HAL_Driver/Src/stm32f0xx_hal_pcd.c **** /**
1056:Drivers/STM32F0xx_HAL_Driver/Src/stm32f0xx_hal_pcd.c ****   * @brief  HAL_PCD_ActivateRemoteWakeup : active remote wakeup signalling
1057:Drivers/STM32F0xx_HAL_Driver/Src/stm32f0xx_hal_pcd.c **** * @param  hpcd: PCD handle
1058:Drivers/STM32F0xx_HAL_Driver/Src/stm32f0xx_hal_pcd.c **** * @retval HAL status
1059:Drivers/STM32F0xx_HAL_Driver/Src/stm32f0xx_hal_pcd.c **** */
1060:Drivers/STM32F0xx_HAL_Driver/Src/stm32f0xx_hal_pcd.c **** HAL_StatusTypeDef HAL_PCD_ActivateRemoteWakeup(PCD_HandleTypeDef *hpcd)
1061:Drivers/STM32F0xx_HAL_Driver/Src/stm32f0xx_hal_pcd.c **** {
 2309              		.loc 1 1061 0
 2310              		.cfi_startproc
 2311              	.LVL230:
1062:Drivers/STM32F0xx_HAL_Driver/Src/stm32f0xx_hal_pcd.c ****   if (hpcd->Init.lpm_enable ==1)
 2312              		.loc 1 1062 0
 2313 0000 C369     		ldr	r3, [r0, #28]
 2314 0002 012B     		cmp	r3, #1
 2315 0004 06D1     		bne	.L130
1063:Drivers/STM32F0xx_HAL_Driver/Src/stm32f0xx_hal_pcd.c ****   {
1064:Drivers/STM32F0xx_HAL_Driver/Src/stm32f0xx_hal_pcd.c ****     /* Apply L1 Resume */
1065:Drivers/STM32F0xx_HAL_Driver/Src/stm32f0xx_hal_pcd.c ****     hpcd->Instance->CNTR |= USB_CNTR_L1RESUME;
 2316              		.loc 1 1065 0
 2317 0006 0268     		ldr	r2, [r0]
 2318 0008 4023     		mov	r3, #64
 2319 000a D05A     		ldrh	r0, [r2, r3]
 2320              	.LVL231:
 2321 000c 2021     		mov	r1, #32
 2322 000e 0143     		orr	r1, r0
 2323 0010 D152     		strh	r1, [r2, r3]
 2324 0012 05E0     		b	.L131
 2325              	.LVL232:
 2326              	.L130:
1066:Drivers/STM32F0xx_HAL_Driver/Src/stm32f0xx_hal_pcd.c ****   }
1067:Drivers/STM32F0xx_HAL_Driver/Src/stm32f0xx_hal_pcd.c ****   else
1068:Drivers/STM32F0xx_HAL_Driver/Src/stm32f0xx_hal_pcd.c ****   {
1069:Drivers/STM32F0xx_HAL_Driver/Src/stm32f0xx_hal_pcd.c ****     /* Apply L2 Resume */
1070:Drivers/STM32F0xx_HAL_Driver/Src/stm32f0xx_hal_pcd.c ****     hpcd->Instance->CNTR |= USB_CNTR_RESUME;
 2327              		.loc 1 1070 0
 2328 0014 0268     		ldr	r2, [r0]
 2329 0016 4023     		mov	r3, #64
 2330 0018 D05A     		ldrh	r0, [r2, r3]
 2331              	.LVL233:
 2332 001a 1021     		mov	r1, #16
 2333 001c 0143     		orr	r1, r0
 2334 001e D152     		strh	r1, [r2, r3]
 2335              	.L131:
1071:Drivers/STM32F0xx_HAL_Driver/Src/stm32f0xx_hal_pcd.c ****   }
1072:Drivers/STM32F0xx_HAL_Driver/Src/stm32f0xx_hal_pcd.c ****   
1073:Drivers/STM32F0xx_HAL_Driver/Src/stm32f0xx_hal_pcd.c ****   return (HAL_OK);
1074:Drivers/STM32F0xx_HAL_Driver/Src/stm32f0xx_hal_pcd.c **** }
 2336              		.loc 1 1074 0
 2337 0020 0020     		mov	r0, #0
 2338              		@ sp needed
 2339 0022 7047     		bx	lr
 2340              		.cfi_endproc
 2341              	.LFE63:
 2343              		.section	.text.HAL_PCD_DeActivateRemoteWakeup,"ax",%progbits
 2344              		.align	2
 2345              		.global	HAL_PCD_DeActivateRemoteWakeup
 2346              		.code	16
ARM GAS  /tmp/ccBeNIig.s 			page 61


 2347              		.thumb_func
 2349              	HAL_PCD_DeActivateRemoteWakeup:
 2350              	.LFB64:
1075:Drivers/STM32F0xx_HAL_Driver/Src/stm32f0xx_hal_pcd.c **** 
1076:Drivers/STM32F0xx_HAL_Driver/Src/stm32f0xx_hal_pcd.c **** /**
1077:Drivers/STM32F0xx_HAL_Driver/Src/stm32f0xx_hal_pcd.c **** * @brief  HAL_PCD_DeActivateRemoteWakeup : de-active remote wakeup signalling
1078:Drivers/STM32F0xx_HAL_Driver/Src/stm32f0xx_hal_pcd.c **** * @param  hpcd: PCD handle
1079:Drivers/STM32F0xx_HAL_Driver/Src/stm32f0xx_hal_pcd.c **** * @retval HAL status
1080:Drivers/STM32F0xx_HAL_Driver/Src/stm32f0xx_hal_pcd.c **** */
1081:Drivers/STM32F0xx_HAL_Driver/Src/stm32f0xx_hal_pcd.c **** HAL_StatusTypeDef HAL_PCD_DeActivateRemoteWakeup(PCD_HandleTypeDef *hpcd)
1082:Drivers/STM32F0xx_HAL_Driver/Src/stm32f0xx_hal_pcd.c **** {
 2351              		.loc 1 1082 0
 2352              		.cfi_startproc
 2353              	.LVL234:
1083:Drivers/STM32F0xx_HAL_Driver/Src/stm32f0xx_hal_pcd.c ****   if (hpcd->Init.lpm_enable ==1)
 2354              		.loc 1 1083 0
 2355 0000 C369     		ldr	r3, [r0, #28]
 2356 0002 012B     		cmp	r3, #1
 2357 0004 06D1     		bne	.L133
1084:Drivers/STM32F0xx_HAL_Driver/Src/stm32f0xx_hal_pcd.c ****   {
1085:Drivers/STM32F0xx_HAL_Driver/Src/stm32f0xx_hal_pcd.c ****     /* Release L1 Resume */
1086:Drivers/STM32F0xx_HAL_Driver/Src/stm32f0xx_hal_pcd.c ****     hpcd->Instance->CNTR &= ((uint16_t)(~ USB_CNTR_L1RESUME));
 2358              		.loc 1 1086 0
 2359 0006 0268     		ldr	r2, [r0]
 2360 0008 4023     		mov	r3, #64
 2361 000a D15A     		ldrh	r1, [r2, r3]
 2362 000c 2020     		mov	r0, #32
 2363              	.LVL235:
 2364 000e 8143     		bic	r1, r0
 2365 0010 D152     		strh	r1, [r2, r3]
 2366 0012 05E0     		b	.L134
 2367              	.LVL236:
 2368              	.L133:
1087:Drivers/STM32F0xx_HAL_Driver/Src/stm32f0xx_hal_pcd.c ****   }
1088:Drivers/STM32F0xx_HAL_Driver/Src/stm32f0xx_hal_pcd.c ****   else
1089:Drivers/STM32F0xx_HAL_Driver/Src/stm32f0xx_hal_pcd.c ****   {
1090:Drivers/STM32F0xx_HAL_Driver/Src/stm32f0xx_hal_pcd.c ****     /* Release L2 Resume */
1091:Drivers/STM32F0xx_HAL_Driver/Src/stm32f0xx_hal_pcd.c ****     hpcd->Instance->CNTR &= ((uint16_t)(~ USB_CNTR_RESUME)) ;
 2369              		.loc 1 1091 0
 2370 0014 0268     		ldr	r2, [r0]
 2371 0016 4023     		mov	r3, #64
 2372 0018 D15A     		ldrh	r1, [r2, r3]
 2373 001a 1020     		mov	r0, #16
 2374              	.LVL237:
 2375 001c 8143     		bic	r1, r0
 2376 001e D152     		strh	r1, [r2, r3]
 2377              	.L134:
1092:Drivers/STM32F0xx_HAL_Driver/Src/stm32f0xx_hal_pcd.c ****   }
1093:Drivers/STM32F0xx_HAL_Driver/Src/stm32f0xx_hal_pcd.c ****   
1094:Drivers/STM32F0xx_HAL_Driver/Src/stm32f0xx_hal_pcd.c ****   return (HAL_OK);
1095:Drivers/STM32F0xx_HAL_Driver/Src/stm32f0xx_hal_pcd.c **** }
 2378              		.loc 1 1095 0
 2379 0020 0020     		mov	r0, #0
 2380              		@ sp needed
 2381 0022 7047     		bx	lr
 2382              		.cfi_endproc
 2383              	.LFE64:
ARM GAS  /tmp/ccBeNIig.s 			page 62


 2385              		.section	.text.HAL_PCD_GetState,"ax",%progbits
 2386              		.align	2
 2387              		.global	HAL_PCD_GetState
 2388              		.code	16
 2389              		.thumb_func
 2391              	HAL_PCD_GetState:
 2392              	.LFB65:
1096:Drivers/STM32F0xx_HAL_Driver/Src/stm32f0xx_hal_pcd.c **** /**
1097:Drivers/STM32F0xx_HAL_Driver/Src/stm32f0xx_hal_pcd.c ****   * @}
1098:Drivers/STM32F0xx_HAL_Driver/Src/stm32f0xx_hal_pcd.c ****   */
1099:Drivers/STM32F0xx_HAL_Driver/Src/stm32f0xx_hal_pcd.c **** 
1100:Drivers/STM32F0xx_HAL_Driver/Src/stm32f0xx_hal_pcd.c **** /** @defgroup PCD_Exported_Functions_Group4 Peripheral State functions 
1101:Drivers/STM32F0xx_HAL_Driver/Src/stm32f0xx_hal_pcd.c ****  *  @brief   Peripheral State functions 
1102:Drivers/STM32F0xx_HAL_Driver/Src/stm32f0xx_hal_pcd.c ****  *
1103:Drivers/STM32F0xx_HAL_Driver/Src/stm32f0xx_hal_pcd.c **** @verbatim   
1104:Drivers/STM32F0xx_HAL_Driver/Src/stm32f0xx_hal_pcd.c ****  ===============================================================================
1105:Drivers/STM32F0xx_HAL_Driver/Src/stm32f0xx_hal_pcd.c ****                       ##### Peripheral State functions #####
1106:Drivers/STM32F0xx_HAL_Driver/Src/stm32f0xx_hal_pcd.c ****  ===============================================================================  
1107:Drivers/STM32F0xx_HAL_Driver/Src/stm32f0xx_hal_pcd.c ****     [..]
1108:Drivers/STM32F0xx_HAL_Driver/Src/stm32f0xx_hal_pcd.c ****     This subsection permits to get in run-time the status of the peripheral 
1109:Drivers/STM32F0xx_HAL_Driver/Src/stm32f0xx_hal_pcd.c ****     and the data flow.
1110:Drivers/STM32F0xx_HAL_Driver/Src/stm32f0xx_hal_pcd.c **** 
1111:Drivers/STM32F0xx_HAL_Driver/Src/stm32f0xx_hal_pcd.c **** @endverbatim
1112:Drivers/STM32F0xx_HAL_Driver/Src/stm32f0xx_hal_pcd.c ****   * @{
1113:Drivers/STM32F0xx_HAL_Driver/Src/stm32f0xx_hal_pcd.c ****   */
1114:Drivers/STM32F0xx_HAL_Driver/Src/stm32f0xx_hal_pcd.c **** 
1115:Drivers/STM32F0xx_HAL_Driver/Src/stm32f0xx_hal_pcd.c **** /**
1116:Drivers/STM32F0xx_HAL_Driver/Src/stm32f0xx_hal_pcd.c ****   * @brief  Return the PCD state
1117:Drivers/STM32F0xx_HAL_Driver/Src/stm32f0xx_hal_pcd.c ****   * @param  hpcd : PCD handle
1118:Drivers/STM32F0xx_HAL_Driver/Src/stm32f0xx_hal_pcd.c ****   * @retval HAL state
1119:Drivers/STM32F0xx_HAL_Driver/Src/stm32f0xx_hal_pcd.c ****   */
1120:Drivers/STM32F0xx_HAL_Driver/Src/stm32f0xx_hal_pcd.c **** PCD_StateTypeDef HAL_PCD_GetState(PCD_HandleTypeDef *hpcd)
1121:Drivers/STM32F0xx_HAL_Driver/Src/stm32f0xx_hal_pcd.c **** {
 2393              		.loc 1 1121 0
 2394              		.cfi_startproc
 2395              	.LVL238:
1122:Drivers/STM32F0xx_HAL_Driver/Src/stm32f0xx_hal_pcd.c ****   return hpcd->State;
 2396              		.loc 1 1122 0
 2397 0000 EA23     		mov	r3, #234
 2398 0002 FF33     		add	r3, r3, #255
 2399 0004 C05C     		ldrb	r0, [r0, r3]
 2400              	.LVL239:
 2401 0006 C0B2     		uxtb	r0, r0
1123:Drivers/STM32F0xx_HAL_Driver/Src/stm32f0xx_hal_pcd.c **** }
 2402              		.loc 1 1123 0
 2403              		@ sp needed
 2404 0008 7047     		bx	lr
 2405              		.cfi_endproc
 2406              	.LFE65:
 2408 000a C046     		.section	.text.PCD_WritePMA,"ax",%progbits
 2409              		.align	2
 2410              		.global	PCD_WritePMA
 2411              		.code	16
 2412              		.thumb_func
 2414              	PCD_WritePMA:
 2415              	.LFB66:
1124:Drivers/STM32F0xx_HAL_Driver/Src/stm32f0xx_hal_pcd.c **** /**
ARM GAS  /tmp/ccBeNIig.s 			page 63


1125:Drivers/STM32F0xx_HAL_Driver/Src/stm32f0xx_hal_pcd.c ****   * @}
1126:Drivers/STM32F0xx_HAL_Driver/Src/stm32f0xx_hal_pcd.c ****   */
1127:Drivers/STM32F0xx_HAL_Driver/Src/stm32f0xx_hal_pcd.c ****   
1128:Drivers/STM32F0xx_HAL_Driver/Src/stm32f0xx_hal_pcd.c **** /**
1129:Drivers/STM32F0xx_HAL_Driver/Src/stm32f0xx_hal_pcd.c ****   * @}
1130:Drivers/STM32F0xx_HAL_Driver/Src/stm32f0xx_hal_pcd.c ****   */
1131:Drivers/STM32F0xx_HAL_Driver/Src/stm32f0xx_hal_pcd.c **** 
1132:Drivers/STM32F0xx_HAL_Driver/Src/stm32f0xx_hal_pcd.c **** /** @addtogroup PCD_Private_Functions
1133:Drivers/STM32F0xx_HAL_Driver/Src/stm32f0xx_hal_pcd.c ****   * @{
1134:Drivers/STM32F0xx_HAL_Driver/Src/stm32f0xx_hal_pcd.c ****   */
1135:Drivers/STM32F0xx_HAL_Driver/Src/stm32f0xx_hal_pcd.c **** /**
1136:Drivers/STM32F0xx_HAL_Driver/Src/stm32f0xx_hal_pcd.c ****   * @brief Copy a buffer from user memory area to packet memory area (PMA)
1137:Drivers/STM32F0xx_HAL_Driver/Src/stm32f0xx_hal_pcd.c ****   * @param   USBx: USB peripheral instance register address.
1138:Drivers/STM32F0xx_HAL_Driver/Src/stm32f0xx_hal_pcd.c ****   * @param   pbUsrBuf: pointer to user memory area.
1139:Drivers/STM32F0xx_HAL_Driver/Src/stm32f0xx_hal_pcd.c ****   * @param   wPMABufAddr: address into PMA.
1140:Drivers/STM32F0xx_HAL_Driver/Src/stm32f0xx_hal_pcd.c ****   * @param   wNBytes: no. of bytes to be copied.
1141:Drivers/STM32F0xx_HAL_Driver/Src/stm32f0xx_hal_pcd.c ****   * @retval None
1142:Drivers/STM32F0xx_HAL_Driver/Src/stm32f0xx_hal_pcd.c ****   */
1143:Drivers/STM32F0xx_HAL_Driver/Src/stm32f0xx_hal_pcd.c **** void PCD_WritePMA(USB_TypeDef  *USBx, uint8_t *pbUsrBuf, uint16_t wPMABufAddr, uint16_t wNBytes)
1144:Drivers/STM32F0xx_HAL_Driver/Src/stm32f0xx_hal_pcd.c **** {
 2416              		.loc 1 1144 0
 2417              		.cfi_startproc
 2418              	.LVL240:
 2419 0000 10B5     		push	{r4, lr}
 2420              	.LCFI10:
 2421              		.cfi_def_cfa_offset 8
 2422              		.cfi_offset 4, -8
 2423              		.cfi_offset 14, -4
1145:Drivers/STM32F0xx_HAL_Driver/Src/stm32f0xx_hal_pcd.c ****   uint32_t n =  ((uint32_t)((uint32_t)wNBytes + 1U)) >> 1U;
 2424              		.loc 1 1145 0
 2425 0002 0133     		add	r3, r3, #1
 2426              	.LVL241:
 2427 0004 5B08     		lsr	r3, r3, #1
 2428              	.LVL242:
1146:Drivers/STM32F0xx_HAL_Driver/Src/stm32f0xx_hal_pcd.c ****   uint32_t i;
1147:Drivers/STM32F0xx_HAL_Driver/Src/stm32f0xx_hal_pcd.c ****   uint16_t temp1, temp2;
1148:Drivers/STM32F0xx_HAL_Driver/Src/stm32f0xx_hal_pcd.c ****   uint16_t *pdwVal;
1149:Drivers/STM32F0xx_HAL_Driver/Src/stm32f0xx_hal_pcd.c ****   pdwVal = (uint16_t *)((uint32_t)(wPMABufAddr + (uint32_t)USBx + 0x400U));
 2429              		.loc 1 1149 0
 2430 0006 1218     		add	r2, r2, r0
 2431              	.LVL243:
 2432 0008 8020     		mov	r0, #128
 2433              	.LVL244:
 2434 000a C000     		lsl	r0, r0, #3
 2435 000c 1218     		add	r2, r2, r0
 2436              	.LVL245:
1150:Drivers/STM32F0xx_HAL_Driver/Src/stm32f0xx_hal_pcd.c ****   
1151:Drivers/STM32F0xx_HAL_Driver/Src/stm32f0xx_hal_pcd.c ****   for (i = n; i != 0; i--)
 2437              		.loc 1 1151 0
 2438 000e 07E0     		b	.L137
 2439              	.LVL246:
 2440              	.L138:
1152:Drivers/STM32F0xx_HAL_Driver/Src/stm32f0xx_hal_pcd.c ****   {
1153:Drivers/STM32F0xx_HAL_Driver/Src/stm32f0xx_hal_pcd.c ****     temp1 = (uint16_t) * pbUsrBuf;
 2441              		.loc 1 1153 0 discriminator 2
 2442 0010 0C78     		ldrb	r4, [r1]
 2443              	.LVL247:
ARM GAS  /tmp/ccBeNIig.s 			page 64


1154:Drivers/STM32F0xx_HAL_Driver/Src/stm32f0xx_hal_pcd.c ****     pbUsrBuf++;
1155:Drivers/STM32F0xx_HAL_Driver/Src/stm32f0xx_hal_pcd.c ****     temp2 = temp1 | ((uint16_t)((uint16_t)  * pbUsrBuf << 8U)) ;
 2444              		.loc 1 1155 0 discriminator 2
 2445 0012 4878     		ldrb	r0, [r1, #1]
 2446 0014 0002     		lsl	r0, r0, #8
 2447 0016 2043     		orr	r0, r4
 2448              	.LVL248:
1156:Drivers/STM32F0xx_HAL_Driver/Src/stm32f0xx_hal_pcd.c ****     *pdwVal++ = temp2;
 2449              		.loc 1 1156 0 discriminator 2
 2450 0018 1080     		strh	r0, [r2]
1157:Drivers/STM32F0xx_HAL_Driver/Src/stm32f0xx_hal_pcd.c ****     pbUsrBuf++;
 2451              		.loc 1 1157 0 discriminator 2
 2452 001a 0231     		add	r1, r1, #2
 2453              	.LVL249:
1151:Drivers/STM32F0xx_HAL_Driver/Src/stm32f0xx_hal_pcd.c ****   for (i = n; i != 0; i--)
 2454              		.loc 1 1151 0 discriminator 2
 2455 001c 013B     		sub	r3, r3, #1
 2456              	.LVL250:
1156:Drivers/STM32F0xx_HAL_Driver/Src/stm32f0xx_hal_pcd.c ****     *pdwVal++ = temp2;
 2457              		.loc 1 1156 0 discriminator 2
 2458 001e 0232     		add	r2, r2, #2
 2459              	.LVL251:
 2460              	.L137:
1151:Drivers/STM32F0xx_HAL_Driver/Src/stm32f0xx_hal_pcd.c ****   for (i = n; i != 0; i--)
 2461              		.loc 1 1151 0 discriminator 1
 2462 0020 002B     		cmp	r3, #0
 2463 0022 F5D1     		bne	.L138
1158:Drivers/STM32F0xx_HAL_Driver/Src/stm32f0xx_hal_pcd.c ****   }
1159:Drivers/STM32F0xx_HAL_Driver/Src/stm32f0xx_hal_pcd.c **** }
 2464              		.loc 1 1159 0
 2465              		@ sp needed
 2466 0024 10BD     		pop	{r4, pc}
 2467              		.cfi_endproc
 2468              	.LFE66:
 2470 0026 C046     		.section	.text.HAL_PCD_EP_Transmit,"ax",%progbits
 2471              		.align	2
 2472              		.global	HAL_PCD_EP_Transmit
 2473              		.code	16
 2474              		.thumb_func
 2476              	HAL_PCD_EP_Transmit:
 2477              	.LFB59:
 898:Drivers/STM32F0xx_HAL_Driver/Src/stm32f0xx_hal_pcd.c **** {
 2478              		.loc 1 898 0
 2479              		.cfi_startproc
 2480              	.LVL252:
 2481 0000 70B5     		push	{r4, r5, r6, lr}
 2482              	.LCFI11:
 2483              		.cfi_def_cfa_offset 16
 2484              		.cfi_offset 4, -16
 2485              		.cfi_offset 5, -12
 2486              		.cfi_offset 6, -8
 2487              		.cfi_offset 14, -4
 2488 0002 051C     		mov	r5, r0
 2489              	.LVL253:
 902:Drivers/STM32F0xx_HAL_Driver/Src/stm32f0xx_hal_pcd.c ****   ep = &hpcd->IN_ep[ep_addr & 0x7FU];
 2490              		.loc 1 902 0
 2491 0004 7F20     		mov	r0, #127
ARM GAS  /tmp/ccBeNIig.s 			page 65


 2492              	.LVL254:
 2493 0006 0140     		and	r1, r0
 2494              	.LVL255:
 2495 0008 CC00     		lsl	r4, r1, #3
 2496 000a 641A     		sub	r4, r4, r1
 2497 000c A400     		lsl	r4, r4, #2
 2498 000e 2834     		add	r4, r4, #40
 2499 0010 2C19     		add	r4, r5, r4
 2500              	.LVL256:
 905:Drivers/STM32F0xx_HAL_Driver/Src/stm32f0xx_hal_pcd.c ****   ep->xfer_buff = pBuf;  
 2501              		.loc 1 905 0
 2502 0012 2261     		str	r2, [r4, #16]
 906:Drivers/STM32F0xx_HAL_Driver/Src/stm32f0xx_hal_pcd.c ****   ep->xfer_len = len;
 2503              		.loc 1 906 0
 2504 0014 6361     		str	r3, [r4, #20]
 907:Drivers/STM32F0xx_HAL_Driver/Src/stm32f0xx_hal_pcd.c ****   ep->xfer_count = 0U;
 2505              		.loc 1 907 0
 2506 0016 0023     		mov	r3, #0
 2507              	.LVL257:
 2508 0018 A361     		str	r3, [r4, #24]
 908:Drivers/STM32F0xx_HAL_Driver/Src/stm32f0xx_hal_pcd.c ****   ep->is_in = 1U;
 2509              		.loc 1 908 0
 2510 001a 0123     		mov	r3, #1
 2511 001c 6370     		strb	r3, [r4, #1]
 909:Drivers/STM32F0xx_HAL_Driver/Src/stm32f0xx_hal_pcd.c ****   ep->num = ep_addr & 0x7FU;
 2512              		.loc 1 909 0
 2513 001e 2170     		strb	r1, [r4]
 911:Drivers/STM32F0xx_HAL_Driver/Src/stm32f0xx_hal_pcd.c ****   __HAL_LOCK(hpcd); 
 2514              		.loc 1 911 0
 2515 0020 F423     		mov	r3, #244
 2516 0022 5B00     		lsl	r3, r3, #1
 2517 0024 EB5C     		ldrb	r3, [r5, r3]
 2518 0026 012B     		cmp	r3, #1
 2519 0028 00D1     		bne	.LCB2700
 2520 002a B2E0     		b	.L158	@long jump
 2521              	.LCB2700:
 911:Drivers/STM32F0xx_HAL_Driver/Src/stm32f0xx_hal_pcd.c ****   __HAL_LOCK(hpcd); 
 2522              		.loc 1 911 0 is_stmt 0 discriminator 2
 2523 002c 0122     		mov	r2, #1
 2524              	.LVL258:
 2525 002e F423     		mov	r3, #244
 2526 0030 5B00     		lsl	r3, r3, #1
 2527 0032 EA54     		strb	r2, [r5, r3]
 2528              	.LVL259:
 914:Drivers/STM32F0xx_HAL_Driver/Src/stm32f0xx_hal_pcd.c ****   if (ep->xfer_len > ep->maxpacket)
 2529              		.loc 1 914 0 is_stmt 1 discriminator 2
 2530 0034 6369     		ldr	r3, [r4, #20]
 2531 0036 E268     		ldr	r2, [r4, #12]
 2532 0038 9342     		cmp	r3, r2
 2533 003a 03D9     		bls	.L141
 2534              	.LVL260:
 917:Drivers/STM32F0xx_HAL_Driver/Src/stm32f0xx_hal_pcd.c ****     ep->xfer_len-=len; 
 2535              		.loc 1 917 0
 2536 003c 9B1A     		sub	r3, r3, r2
 2537 003e 6361     		str	r3, [r4, #20]
 916:Drivers/STM32F0xx_HAL_Driver/Src/stm32f0xx_hal_pcd.c ****     len=ep->maxpacket;
 2538              		.loc 1 916 0
ARM GAS  /tmp/ccBeNIig.s 			page 66


 2539 0040 131C     		mov	r3, r2
 2540 0042 01E0     		b	.L142
 2541              	.LVL261:
 2542              	.L141:
 922:Drivers/STM32F0xx_HAL_Driver/Src/stm32f0xx_hal_pcd.c ****     ep->xfer_len =0U;
 2543              		.loc 1 922 0
 2544 0044 0022     		mov	r2, #0
 2545 0046 6261     		str	r2, [r4, #20]
 2546              	.L142:
 926:Drivers/STM32F0xx_HAL_Driver/Src/stm32f0xx_hal_pcd.c ****   if (ep->doublebuffer == 0U) 
 2547              		.loc 1 926 0
 2548 0048 A27A     		ldrb	r2, [r4, #10]
 2549 004a 002A     		cmp	r2, #0
 2550 004c 11D1     		bne	.L143
 928:Drivers/STM32F0xx_HAL_Driver/Src/stm32f0xx_hal_pcd.c ****     PCD_WritePMA(hpcd->Instance, ep->xfer_buff, ep->pmaadress, len);
 2551              		.loc 1 928 0
 2552 004e 9EB2     		uxth	r6, r3
 2553 0050 A288     		ldrh	r2, [r4, #4]
 2554 0052 2868     		ldr	r0, [r5]
 2555 0054 2169     		ldr	r1, [r4, #16]
 2556 0056 331C     		mov	r3, r6
 2557              	.LVL262:
 2558 0058 FFF7FEFF 		bl	PCD_WritePMA
 2559              	.LVL263:
 929:Drivers/STM32F0xx_HAL_Driver/Src/stm32f0xx_hal_pcd.c ****     PCD_SET_EP_TX_CNT(hpcd->Instance, ep->num, len);
 2560              		.loc 1 929 0
 2561 005c 2B68     		ldr	r3, [r5]
 2562 005e 5022     		mov	r2, #80
 2563 0060 995A     		ldrh	r1, [r3, r2]
 2564 0062 2278     		ldrb	r2, [r4]
 2565 0064 D200     		lsl	r2, r2, #3
 2566 0066 8A18     		add	r2, r1, r2
 2567 0068 D318     		add	r3, r2, r3
 2568 006a 4B48     		ldr	r0, .L159
 2569 006c 1B18     		add	r3, r3, r0
 2570 006e 1E80     		strh	r6, [r3]
 2571 0070 7DE0     		b	.L144
 2572              	.LVL264:
 2573              	.L143:
 934:Drivers/STM32F0xx_HAL_Driver/Src/stm32f0xx_hal_pcd.c ****     if ((PCD_GET_ENDPOINT(hpcd->Instance, ep->num)& USB_EP_DTOG_TX) == USB_EP_DTOG_TX)
 2574              		.loc 1 934 0
 2575 0072 2A68     		ldr	r2, [r5]
 2576 0074 2178     		ldrb	r1, [r4]
 2577 0076 8800     		lsl	r0, r1, #2
 2578 0078 105A     		ldrh	r0, [r2, r0]
 2579 007a 4606     		lsl	r6, r0, #25
 2580 007c 2CD5     		bpl	.L145
 937:Drivers/STM32F0xx_HAL_Driver/Src/stm32f0xx_hal_pcd.c ****       PCD_SET_EP_DBUF1_CNT(hpcd->Instance, ep->num, ep->is_in, len)
 2581              		.loc 1 937 0
 2582 007e 6078     		ldrb	r0, [r4, #1]
 2583 0080 0028     		cmp	r0, #0
 2584 0082 1DD1     		bne	.L146
 2585              	.LBB28:
 937:Drivers/STM32F0xx_HAL_Driver/Src/stm32f0xx_hal_pcd.c ****       PCD_SET_EP_DBUF1_CNT(hpcd->Instance, ep->num, ep->is_in, len)
 2586              		.loc 1 937 0 is_stmt 0 discriminator 1
 2587 0084 5020     		mov	r0, #80
 2588 0086 105A     		ldrh	r0, [r2, r0]
ARM GAS  /tmp/ccBeNIig.s 			page 67


 2589 0088 C900     		lsl	r1, r1, #3
 2590 008a 4118     		add	r1, r0, r1
 2591 008c 8A18     		add	r2, r1, r2
 2592 008e 4348     		ldr	r0, .L159+4
 2593 0090 1218     		add	r2, r2, r0
 2594              	.LVL265:
 2595              	.LBB29:
 2596 0092 3E2B     		cmp	r3, #62
 2597 0094 0BD9     		bls	.L147
 2598 0096 5909     		lsr	r1, r3, #5
 2599 0098 89B2     		uxth	r1, r1
 2600              	.LVL266:
 2601 009a DE06     		lsl	r6, r3, #27
 2602 009c 01D1     		bne	.L148
 2603 009e 0139     		sub	r1, r1, #1
 2604              	.LVL267:
 2605 00a0 89B2     		uxth	r1, r1
 2606              	.LVL268:
 2607              	.L148:
 937:Drivers/STM32F0xx_HAL_Driver/Src/stm32f0xx_hal_pcd.c ****       PCD_SET_EP_DBUF1_CNT(hpcd->Instance, ep->num, ep->is_in, len)
 2608              		.loc 1 937 0 discriminator 2
 2609 00a2 8902     		lsl	r1, r1, #10
 2610              	.LVL269:
 2611 00a4 8020     		mov	r0, #128
 2612 00a6 0002     		lsl	r0, r0, #8
 2613 00a8 0143     		orr	r1, r0
 2614 00aa 1180     		strh	r1, [r2]
 2615 00ac 12E0     		b	.L149
 2616              	.L147:
 2617 00ae 5908     		lsr	r1, r3, #1
 2618 00b0 89B2     		uxth	r1, r1
 2619              	.LVL270:
 2620 00b2 D807     		lsl	r0, r3, #31
 2621 00b4 01D5     		bpl	.L150
 937:Drivers/STM32F0xx_HAL_Driver/Src/stm32f0xx_hal_pcd.c ****       PCD_SET_EP_DBUF1_CNT(hpcd->Instance, ep->num, ep->is_in, len)
 2622              		.loc 1 937 0 discriminator 1
 2623 00b6 0131     		add	r1, r1, #1
 2624              	.LVL271:
 2625 00b8 89B2     		uxth	r1, r1
 2626              	.LVL272:
 2627              	.L150:
 937:Drivers/STM32F0xx_HAL_Driver/Src/stm32f0xx_hal_pcd.c ****       PCD_SET_EP_DBUF1_CNT(hpcd->Instance, ep->num, ep->is_in, len)
 2628              		.loc 1 937 0 discriminator 2
 2629 00ba 8902     		lsl	r1, r1, #10
 2630              	.LVL273:
 2631 00bc 1180     		strh	r1, [r2]
 2632 00be 09E0     		b	.L149
 2633              	.LVL274:
 2634              	.L146:
 2635              	.LBE29:
 2636              	.LBE28:
 2637 00c0 0128     		cmp	r0, #1
 2638 00c2 07D1     		bne	.L149
 937:Drivers/STM32F0xx_HAL_Driver/Src/stm32f0xx_hal_pcd.c ****       PCD_SET_EP_DBUF1_CNT(hpcd->Instance, ep->num, ep->is_in, len)
 2639              		.loc 1 937 0 discriminator 1
 2640 00c4 5020     		mov	r0, #80
 2641 00c6 105A     		ldrh	r0, [r2, r0]
ARM GAS  /tmp/ccBeNIig.s 			page 68


 2642 00c8 C900     		lsl	r1, r1, #3
 2643 00ca 4118     		add	r1, r0, r1
 2644 00cc 8A18     		add	r2, r1, r2
 2645 00ce 3349     		ldr	r1, .L159+4
 2646 00d0 5218     		add	r2, r2, r1
 2647 00d2 1380     		strh	r3, [r2]
 2648              	.L149:
 938:Drivers/STM32F0xx_HAL_Driver/Src/stm32f0xx_hal_pcd.c ****       pmabuffer = ep->pmaaddr1;
 2649              		.loc 1 938 0 is_stmt 1 discriminator 1
 2650 00d4 2289     		ldrh	r2, [r4, #8]
 2651              	.LVL275:
 2652 00d6 2BE0     		b	.L151
 2653              	.LVL276:
 2654              	.L145:
 943:Drivers/STM32F0xx_HAL_Driver/Src/stm32f0xx_hal_pcd.c ****       PCD_SET_EP_DBUF0_CNT(hpcd->Instance, ep->num, ep->is_in, len)
 2655              		.loc 1 943 0
 2656 00d8 6078     		ldrb	r0, [r4, #1]
 2657 00da 0028     		cmp	r0, #0
 2658 00dc 1DD1     		bne	.L152
 2659              	.LBB30:
 943:Drivers/STM32F0xx_HAL_Driver/Src/stm32f0xx_hal_pcd.c ****       PCD_SET_EP_DBUF0_CNT(hpcd->Instance, ep->num, ep->is_in, len)
 2660              		.loc 1 943 0 is_stmt 0 discriminator 1
 2661 00de 5020     		mov	r0, #80
 2662 00e0 105A     		ldrh	r0, [r2, r0]
 2663 00e2 C900     		lsl	r1, r1, #3
 2664 00e4 4118     		add	r1, r0, r1
 2665 00e6 8A18     		add	r2, r1, r2
 2666 00e8 2B4E     		ldr	r6, .L159
 2667 00ea 9219     		add	r2, r2, r6
 2668              	.LVL277:
 2669              	.LBB31:
 2670 00ec 3E2B     		cmp	r3, #62
 2671 00ee 0BD9     		bls	.L153
 2672 00f0 5909     		lsr	r1, r3, #5
 2673 00f2 89B2     		uxth	r1, r1
 2674              	.LVL278:
 2675 00f4 D806     		lsl	r0, r3, #27
 2676 00f6 01D1     		bne	.L154
 2677 00f8 0139     		sub	r1, r1, #1
 2678              	.LVL279:
 2679 00fa 89B2     		uxth	r1, r1
 2680              	.LVL280:
 2681              	.L154:
 943:Drivers/STM32F0xx_HAL_Driver/Src/stm32f0xx_hal_pcd.c ****       PCD_SET_EP_DBUF0_CNT(hpcd->Instance, ep->num, ep->is_in, len)
 2682              		.loc 1 943 0 discriminator 2
 2683 00fc 8902     		lsl	r1, r1, #10
 2684              	.LVL281:
 2685 00fe 8020     		mov	r0, #128
 2686 0100 0002     		lsl	r0, r0, #8
 2687 0102 0143     		orr	r1, r0
 2688 0104 1180     		strh	r1, [r2]
 2689 0106 12E0     		b	.L155
 2690              	.L153:
 2691 0108 5908     		lsr	r1, r3, #1
 2692 010a 89B2     		uxth	r1, r1
 2693              	.LVL282:
 2694 010c DE07     		lsl	r6, r3, #31
ARM GAS  /tmp/ccBeNIig.s 			page 69


 2695 010e 01D5     		bpl	.L156
 943:Drivers/STM32F0xx_HAL_Driver/Src/stm32f0xx_hal_pcd.c ****       PCD_SET_EP_DBUF0_CNT(hpcd->Instance, ep->num, ep->is_in, len)
 2696              		.loc 1 943 0 discriminator 1
 2697 0110 0131     		add	r1, r1, #1
 2698              	.LVL283:
 2699 0112 89B2     		uxth	r1, r1
 2700              	.LVL284:
 2701              	.L156:
 943:Drivers/STM32F0xx_HAL_Driver/Src/stm32f0xx_hal_pcd.c ****       PCD_SET_EP_DBUF0_CNT(hpcd->Instance, ep->num, ep->is_in, len)
 2702              		.loc 1 943 0 discriminator 2
 2703 0114 8902     		lsl	r1, r1, #10
 2704              	.LVL285:
 2705 0116 1180     		strh	r1, [r2]
 2706 0118 09E0     		b	.L155
 2707              	.LVL286:
 2708              	.L152:
 2709              	.LBE31:
 2710              	.LBE30:
 2711 011a 0128     		cmp	r0, #1
 2712 011c 07D1     		bne	.L155
 943:Drivers/STM32F0xx_HAL_Driver/Src/stm32f0xx_hal_pcd.c ****       PCD_SET_EP_DBUF0_CNT(hpcd->Instance, ep->num, ep->is_in, len)
 2713              		.loc 1 943 0 discriminator 1
 2714 011e 5020     		mov	r0, #80
 2715 0120 105A     		ldrh	r0, [r2, r0]
 2716 0122 C900     		lsl	r1, r1, #3
 2717 0124 4118     		add	r1, r0, r1
 2718 0126 8A18     		add	r2, r1, r2
 2719 0128 1B48     		ldr	r0, .L159
 2720 012a 1218     		add	r2, r2, r0
 2721 012c 1380     		strh	r3, [r2]
 2722              	.L155:
 944:Drivers/STM32F0xx_HAL_Driver/Src/stm32f0xx_hal_pcd.c ****       pmabuffer = ep->pmaaddr0;
 2723              		.loc 1 944 0 is_stmt 1
 2724 012e E288     		ldrh	r2, [r4, #6]
 2725              	.LVL287:
 2726              	.L151:
 947:Drivers/STM32F0xx_HAL_Driver/Src/stm32f0xx_hal_pcd.c ****     PCD_WritePMA(hpcd->Instance, ep->xfer_buff, pmabuffer, len);
 2727              		.loc 1 947 0
 2728 0130 9BB2     		uxth	r3, r3
 2729              	.LVL288:
 2730 0132 2868     		ldr	r0, [r5]
 2731 0134 2169     		ldr	r1, [r4, #16]
 2732 0136 FFF7FEFF 		bl	PCD_WritePMA
 2733              	.LVL289:
 948:Drivers/STM32F0xx_HAL_Driver/Src/stm32f0xx_hal_pcd.c ****     PCD_FreeUserBuffer(hpcd->Instance, ep->num, ep->is_in)
 2734              		.loc 1 948 0
 2735 013a 6378     		ldrb	r3, [r4, #1]
 2736 013c 002B     		cmp	r3, #0
 2737 013e 0AD1     		bne	.L157
 948:Drivers/STM32F0xx_HAL_Driver/Src/stm32f0xx_hal_pcd.c ****     PCD_FreeUserBuffer(hpcd->Instance, ep->num, ep->is_in)
 2738              		.loc 1 948 0 is_stmt 0 discriminator 1
 2739 0140 2378     		ldrb	r3, [r4]
 2740 0142 9B00     		lsl	r3, r3, #2
 2741 0144 2968     		ldr	r1, [r5]
 2742 0146 CB18     		add	r3, r1, r3
 2743 0148 1988     		ldrh	r1, [r3]
 2744 014a 154A     		ldr	r2, .L159+8
ARM GAS  /tmp/ccBeNIig.s 			page 70


 2745 014c 0A40     		and	r2, r1
 2746 014e 1549     		ldr	r1, .L159+12
 2747 0150 0A43     		orr	r2, r1
 2748 0152 1A80     		strh	r2, [r3]
 2749 0154 0BE0     		b	.L144
 2750              	.L157:
 948:Drivers/STM32F0xx_HAL_Driver/Src/stm32f0xx_hal_pcd.c ****     PCD_FreeUserBuffer(hpcd->Instance, ep->num, ep->is_in)
 2751              		.loc 1 948 0 discriminator 2
 2752 0156 012B     		cmp	r3, #1
 2753 0158 09D1     		bne	.L144
 948:Drivers/STM32F0xx_HAL_Driver/Src/stm32f0xx_hal_pcd.c ****     PCD_FreeUserBuffer(hpcd->Instance, ep->num, ep->is_in)
 2754              		.loc 1 948 0 discriminator 1
 2755 015a 2378     		ldrb	r3, [r4]
 2756 015c 9B00     		lsl	r3, r3, #2
 2757 015e 2A68     		ldr	r2, [r5]
 2758 0160 D318     		add	r3, r2, r3
 2759 0162 1988     		ldrh	r1, [r3]
 2760 0164 0E4A     		ldr	r2, .L159+8
 2761 0166 0A40     		and	r2, r1
 2762 0168 0F49     		ldr	r1, .L159+16
 2763 016a 0A43     		orr	r2, r1
 2764 016c 1A80     		strh	r2, [r3]
 2765              	.L144:
 2766              	.LBB32:
 951:Drivers/STM32F0xx_HAL_Driver/Src/stm32f0xx_hal_pcd.c ****   PCD_SET_EP_TX_STATUS(hpcd->Instance, ep->num, USB_EP_TX_VALID)
 2767              		.loc 1 951 0 is_stmt 1
 2768 016e 2378     		ldrb	r3, [r4]
 2769 0170 9B00     		lsl	r3, r3, #2
 2770 0172 2E68     		ldr	r6, [r5]
 2771 0174 F318     		add	r3, r6, r3
 2772 0176 1988     		ldrh	r1, [r3]
 2773 0178 0C4A     		ldr	r2, .L159+20
 2774 017a 0A40     		and	r2, r1
 2775              	.LVL290:
 2776 017c 3021     		mov	r1, #48
 2777 017e 4A40     		eor	r2, r1
 2778              	.LVL291:
 2779 0180 0B49     		ldr	r1, .L159+24
 2780 0182 0A43     		orr	r2, r1
 2781              	.LVL292:
 2782 0184 1A80     		strh	r2, [r3]
 2783              	.LVL293:
 2784              	.LBE32:
 953:Drivers/STM32F0xx_HAL_Driver/Src/stm32f0xx_hal_pcd.c ****   __HAL_UNLOCK(hpcd);
 2785              		.loc 1 953 0
 2786 0186 0022     		mov	r2, #0
 2787 0188 F423     		mov	r3, #244
 2788 018a 5B00     		lsl	r3, r3, #1
 2789 018c EA54     		strb	r2, [r5, r3]
 955:Drivers/STM32F0xx_HAL_Driver/Src/stm32f0xx_hal_pcd.c ****   return HAL_OK;
 2790              		.loc 1 955 0
 2791 018e 0020     		mov	r0, #0
 2792 0190 00E0     		b	.L140
 2793              	.LVL294:
 2794              	.L158:
 911:Drivers/STM32F0xx_HAL_Driver/Src/stm32f0xx_hal_pcd.c ****   __HAL_LOCK(hpcd); 
 2795              		.loc 1 911 0
ARM GAS  /tmp/ccBeNIig.s 			page 71


 2796 0192 0220     		mov	r0, #2
 2797              	.LVL295:
 2798              	.L140:
 956:Drivers/STM32F0xx_HAL_Driver/Src/stm32f0xx_hal_pcd.c **** }
 2799              		.loc 1 956 0
 2800              		@ sp needed
 2801              	.LVL296:
 2802              	.LVL297:
 2803 0194 70BD     		pop	{r4, r5, r6, pc}
 2804              	.L160:
 2805 0196 C046     		.align	2
 2806              	.L159:
 2807 0198 02040000 		.word	1026
 2808 019c 06040000 		.word	1030
 2809 01a0 0F0F0000 		.word	3855
 2810 01a4 C0800000 		.word	32960
 2811 01a8 80C00000 		.word	49280
 2812 01ac BF8FFFFF 		.word	-28737
 2813 01b0 80800000 		.word	32896
 2814              		.cfi_endproc
 2815              	.LFE59:
 2817              		.section	.text.PCD_ReadPMA,"ax",%progbits
 2818              		.align	2
 2819              		.global	PCD_ReadPMA
 2820              		.code	16
 2821              		.thumb_func
 2823              	PCD_ReadPMA:
 2824              	.LFB67:
1160:Drivers/STM32F0xx_HAL_Driver/Src/stm32f0xx_hal_pcd.c **** 
1161:Drivers/STM32F0xx_HAL_Driver/Src/stm32f0xx_hal_pcd.c **** /**
1162:Drivers/STM32F0xx_HAL_Driver/Src/stm32f0xx_hal_pcd.c ****   * @brief Copy a buffer from user memory area to packet memory area (PMA)
1163:Drivers/STM32F0xx_HAL_Driver/Src/stm32f0xx_hal_pcd.c ****   * @param   USBx: USB peripheral instance register address.
1164:Drivers/STM32F0xx_HAL_Driver/Src/stm32f0xx_hal_pcd.c ****   * @param   pbUsrBuf    = pointer to user memory area.
1165:Drivers/STM32F0xx_HAL_Driver/Src/stm32f0xx_hal_pcd.c ****   * @param   wPMABufAddr: address into PMA.
1166:Drivers/STM32F0xx_HAL_Driver/Src/stm32f0xx_hal_pcd.c ****   * @param   wNBytes: no. of bytes to be copied.
1167:Drivers/STM32F0xx_HAL_Driver/Src/stm32f0xx_hal_pcd.c ****   * @retval None
1168:Drivers/STM32F0xx_HAL_Driver/Src/stm32f0xx_hal_pcd.c ****   */
1169:Drivers/STM32F0xx_HAL_Driver/Src/stm32f0xx_hal_pcd.c **** void PCD_ReadPMA(USB_TypeDef  *USBx, uint8_t *pbUsrBuf, uint16_t wPMABufAddr, uint16_t wNBytes)
1170:Drivers/STM32F0xx_HAL_Driver/Src/stm32f0xx_hal_pcd.c **** {
 2825              		.loc 1 1170 0
 2826              		.cfi_startproc
 2827              	.LVL298:
 2828 0000 10B5     		push	{r4, lr}
 2829              	.LCFI12:
 2830              		.cfi_def_cfa_offset 8
 2831              		.cfi_offset 4, -8
 2832              		.cfi_offset 14, -4
1171:Drivers/STM32F0xx_HAL_Driver/Src/stm32f0xx_hal_pcd.c ****   uint32_t n = (uint32_t)wNBytes >> 1U;
 2833              		.loc 1 1171 0
 2834 0002 5C08     		lsr	r4, r3, #1
 2835              	.LVL299:
1172:Drivers/STM32F0xx_HAL_Driver/Src/stm32f0xx_hal_pcd.c ****   uint32_t i;
1173:Drivers/STM32F0xx_HAL_Driver/Src/stm32f0xx_hal_pcd.c ****   uint16_t *pdwVal;
1174:Drivers/STM32F0xx_HAL_Driver/Src/stm32f0xx_hal_pcd.c ****   uint32_t temp;
1175:Drivers/STM32F0xx_HAL_Driver/Src/stm32f0xx_hal_pcd.c ****   pdwVal = (uint16_t *)((uint32_t)(wPMABufAddr + (uint32_t)USBx + 0x400U));
 2836              		.loc 1 1175 0
 2837 0004 1218     		add	r2, r2, r0
ARM GAS  /tmp/ccBeNIig.s 			page 72


 2838              	.LVL300:
 2839 0006 8020     		mov	r0, #128
 2840              	.LVL301:
 2841 0008 C000     		lsl	r0, r0, #3
 2842 000a 1218     		add	r2, r2, r0
 2843              	.LVL302:
1176:Drivers/STM32F0xx_HAL_Driver/Src/stm32f0xx_hal_pcd.c ****   
1177:Drivers/STM32F0xx_HAL_Driver/Src/stm32f0xx_hal_pcd.c ****   for (i = n; i != 0U; i--)
 2844              		.loc 1 1177 0
 2845 000c 06E0     		b	.L162
 2846              	.LVL303:
 2847              	.L163:
1178:Drivers/STM32F0xx_HAL_Driver/Src/stm32f0xx_hal_pcd.c ****   {
1179:Drivers/STM32F0xx_HAL_Driver/Src/stm32f0xx_hal_pcd.c ****     temp = *pdwVal++;
 2848              		.loc 1 1179 0 discriminator 2
 2849 000e 1088     		ldrh	r0, [r2]
 2850              	.LVL304:
1180:Drivers/STM32F0xx_HAL_Driver/Src/stm32f0xx_hal_pcd.c ****     *pbUsrBuf++ = ((temp >> 0) & 0xFF);
 2851              		.loc 1 1180 0 discriminator 2
 2852 0010 0870     		strb	r0, [r1]
 2853              	.LVL305:
1181:Drivers/STM32F0xx_HAL_Driver/Src/stm32f0xx_hal_pcd.c ****     *pbUsrBuf++ = ((temp >> 8) & 0xFF);
 2854              		.loc 1 1181 0 discriminator 2
 2855 0012 000A     		lsr	r0, r0, #8
 2856              	.LVL306:
 2857 0014 4870     		strb	r0, [r1, #1]
1177:Drivers/STM32F0xx_HAL_Driver/Src/stm32f0xx_hal_pcd.c ****   for (i = n; i != 0U; i--)
 2858              		.loc 1 1177 0 discriminator 2
 2859 0016 013C     		sub	r4, r4, #1
 2860              	.LVL307:
1179:Drivers/STM32F0xx_HAL_Driver/Src/stm32f0xx_hal_pcd.c ****     temp = *pdwVal++;
 2861              		.loc 1 1179 0 discriminator 2
 2862 0018 0232     		add	r2, r2, #2
 2863              	.LVL308:
 2864              		.loc 1 1181 0 discriminator 2
 2865 001a 0231     		add	r1, r1, #2
 2866              	.LVL309:
 2867              	.L162:
1177:Drivers/STM32F0xx_HAL_Driver/Src/stm32f0xx_hal_pcd.c ****   for (i = n; i != 0U; i--)
 2868              		.loc 1 1177 0 discriminator 1
 2869 001c 002C     		cmp	r4, #0
 2870 001e F6D1     		bne	.L163
1182:Drivers/STM32F0xx_HAL_Driver/Src/stm32f0xx_hal_pcd.c ****   }
1183:Drivers/STM32F0xx_HAL_Driver/Src/stm32f0xx_hal_pcd.c ****   
1184:Drivers/STM32F0xx_HAL_Driver/Src/stm32f0xx_hal_pcd.c ****   if (wNBytes % 2)
 2871              		.loc 1 1184 0
 2872 0020 D807     		lsl	r0, r3, #31
 2873 0022 01D5     		bpl	.L161
 2874              	.LVL310:
1185:Drivers/STM32F0xx_HAL_Driver/Src/stm32f0xx_hal_pcd.c ****   {
1186:Drivers/STM32F0xx_HAL_Driver/Src/stm32f0xx_hal_pcd.c ****     temp = *pdwVal++;
 2875              		.loc 1 1186 0
 2876 0024 1388     		ldrh	r3, [r2]
 2877              	.LVL311:
1187:Drivers/STM32F0xx_HAL_Driver/Src/stm32f0xx_hal_pcd.c ****     *pbUsrBuf++ = ((temp >> 0) & 0xFF);
 2878              		.loc 1 1187 0
 2879 0026 0B70     		strb	r3, [r1]
ARM GAS  /tmp/ccBeNIig.s 			page 73


 2880              	.LVL312:
 2881              	.L161:
1188:Drivers/STM32F0xx_HAL_Driver/Src/stm32f0xx_hal_pcd.c ****   }
1189:Drivers/STM32F0xx_HAL_Driver/Src/stm32f0xx_hal_pcd.c **** }
 2882              		.loc 1 1189 0
 2883              		@ sp needed
 2884              	.LVL313:
 2885 0028 10BD     		pop	{r4, pc}
 2886              		.cfi_endproc
 2887              	.LFE67:
 2889              		.section	.text.PCD_EP_ISR_Handler,"ax",%progbits
 2890              		.align	2
 2891              		.code	16
 2892              		.thumb_func
 2894              	PCD_EP_ISR_Handler:
 2895              	.LFB68:
1190:Drivers/STM32F0xx_HAL_Driver/Src/stm32f0xx_hal_pcd.c **** 
1191:Drivers/STM32F0xx_HAL_Driver/Src/stm32f0xx_hal_pcd.c **** /**
1192:Drivers/STM32F0xx_HAL_Driver/Src/stm32f0xx_hal_pcd.c ****   * @brief  This function handles PCD Endpoint interrupt request.
1193:Drivers/STM32F0xx_HAL_Driver/Src/stm32f0xx_hal_pcd.c ****   * @param  hpcd: PCD handle
1194:Drivers/STM32F0xx_HAL_Driver/Src/stm32f0xx_hal_pcd.c ****   * @retval HAL status
1195:Drivers/STM32F0xx_HAL_Driver/Src/stm32f0xx_hal_pcd.c ****   */
1196:Drivers/STM32F0xx_HAL_Driver/Src/stm32f0xx_hal_pcd.c **** static HAL_StatusTypeDef PCD_EP_ISR_Handler(PCD_HandleTypeDef *hpcd)
1197:Drivers/STM32F0xx_HAL_Driver/Src/stm32f0xx_hal_pcd.c **** {
 2896              		.loc 1 1197 0
 2897              		.cfi_startproc
 2898              	.LVL314:
 2899 0000 F0B5     		push	{r4, r5, r6, r7, lr}
 2900              	.LCFI13:
 2901              		.cfi_def_cfa_offset 20
 2902              		.cfi_offset 4, -20
 2903              		.cfi_offset 5, -16
 2904              		.cfi_offset 6, -12
 2905              		.cfi_offset 7, -8
 2906              		.cfi_offset 14, -4
 2907 0002 5F46     		mov	r7, fp
 2908 0004 5646     		mov	r6, r10
 2909 0006 4D46     		mov	r5, r9
 2910 0008 4446     		mov	r4, r8
 2911 000a F0B4     		push	{r4, r5, r6, r7}
 2912              	.LCFI14:
 2913              		.cfi_def_cfa_offset 36
 2914              		.cfi_offset 8, -36
 2915              		.cfi_offset 9, -32
 2916              		.cfi_offset 10, -28
 2917              		.cfi_offset 11, -24
 2918 000c 83B0     		sub	sp, sp, #12
 2919              	.LCFI15:
 2920              		.cfi_def_cfa_offset 48
 2921 000e 041C     		mov	r4, r0
 2922              	.LVL315:
1198:Drivers/STM32F0xx_HAL_Driver/Src/stm32f0xx_hal_pcd.c ****   PCD_EPTypeDef *ep;
1199:Drivers/STM32F0xx_HAL_Driver/Src/stm32f0xx_hal_pcd.c ****   uint16_t count=0U;
1200:Drivers/STM32F0xx_HAL_Driver/Src/stm32f0xx_hal_pcd.c ****   uint8_t EPindex;
1201:Drivers/STM32F0xx_HAL_Driver/Src/stm32f0xx_hal_pcd.c ****   __IO uint16_t wIstr;  
1202:Drivers/STM32F0xx_HAL_Driver/Src/stm32f0xx_hal_pcd.c ****   __IO uint16_t wEPVal = 0U;
 2923              		.loc 1 1202 0
ARM GAS  /tmp/ccBeNIig.s 			page 74


 2924 0010 0022     		mov	r2, #0
 2925 0012 01AB     		add	r3, sp, #4
 2926 0014 1A80     		strh	r2, [r3]
1203:Drivers/STM32F0xx_HAL_Driver/Src/stm32f0xx_hal_pcd.c ****   
1204:Drivers/STM32F0xx_HAL_Driver/Src/stm32f0xx_hal_pcd.c ****   /* stay in loop while pending interrupts */
1205:Drivers/STM32F0xx_HAL_Driver/Src/stm32f0xx_hal_pcd.c ****   while (((wIstr = hpcd->Instance->ISTR) & USB_ISTR_CTR) != 0U)
 2927              		.loc 1 1205 0
 2928 0016 4427     		mov	r7, #68
 2929 0018 6D46     		mov	r5, sp
 2930 001a 0635     		add	r5, r5, #6
1206:Drivers/STM32F0xx_HAL_Driver/Src/stm32f0xx_hal_pcd.c ****   {
1207:Drivers/STM32F0xx_HAL_Driver/Src/stm32f0xx_hal_pcd.c ****     /* extract highest priority endpoint number */
1208:Drivers/STM32F0xx_HAL_Driver/Src/stm32f0xx_hal_pcd.c ****     EPindex = (uint8_t)(wIstr & USB_ISTR_EP_ID);
 2931              		.loc 1 1208 0
 2932 001c 0F20     		mov	r0, #15
 2933              	.LVL316:
 2934 001e 8046     		mov	r8, r0
1205:Drivers/STM32F0xx_HAL_Driver/Src/stm32f0xx_hal_pcd.c ****   while (((wIstr = hpcd->Instance->ISTR) & USB_ISTR_CTR) != 0U)
 2935              		.loc 1 1205 0
 2936 0020 B3E1     		b	.L189
 2937              	.LVL317:
 2938              	.L188:
 2939              		.loc 1 1208 0
 2940 0022 2E88     		ldrh	r6, [r5]
 2941 0024 4146     		mov	r1, r8
 2942 0026 0E40     		and	r6, r1
 2943              	.LVL318:
1209:Drivers/STM32F0xx_HAL_Driver/Src/stm32f0xx_hal_pcd.c ****     
1210:Drivers/STM32F0xx_HAL_Driver/Src/stm32f0xx_hal_pcd.c ****     if (EPindex == 0U)
 2944              		.loc 1 1210 0
 2945 0028 00D0     		beq	.LCB3219
 2946 002a AAE0     		b	.L167	@long jump
 2947              	.LCB3219:
1211:Drivers/STM32F0xx_HAL_Driver/Src/stm32f0xx_hal_pcd.c ****     {
1212:Drivers/STM32F0xx_HAL_Driver/Src/stm32f0xx_hal_pcd.c ****       /* Decode and service control endpoint interrupt */
1213:Drivers/STM32F0xx_HAL_Driver/Src/stm32f0xx_hal_pcd.c ****       
1214:Drivers/STM32F0xx_HAL_Driver/Src/stm32f0xx_hal_pcd.c ****       /* DIR bit = origin of the interrupt */   
1215:Drivers/STM32F0xx_HAL_Driver/Src/stm32f0xx_hal_pcd.c ****       if ((wIstr & USB_ISTR_DIR) == 0U)
 2948              		.loc 1 1215 0
 2949 002c 2B88     		ldrh	r3, [r5]
 2950 002e DA06     		lsl	r2, r3, #27
 2951 0030 2BD4     		bmi	.L168
1216:Drivers/STM32F0xx_HAL_Driver/Src/stm32f0xx_hal_pcd.c ****       {
1217:Drivers/STM32F0xx_HAL_Driver/Src/stm32f0xx_hal_pcd.c ****         /* DIR = 0 */
1218:Drivers/STM32F0xx_HAL_Driver/Src/stm32f0xx_hal_pcd.c ****         
1219:Drivers/STM32F0xx_HAL_Driver/Src/stm32f0xx_hal_pcd.c ****         /* DIR = 0      => IN  int */
1220:Drivers/STM32F0xx_HAL_Driver/Src/stm32f0xx_hal_pcd.c ****         /* DIR = 0 implies that (EP_CTR_TX = 1) always  */
1221:Drivers/STM32F0xx_HAL_Driver/Src/stm32f0xx_hal_pcd.c ****         PCD_CLEAR_TX_EP_CTR(hpcd->Instance, PCD_ENDP0);
 2952              		.loc 1 1221 0
 2953 0032 0288     		ldrh	r2, [r0]
 2954 0034 B24B     		ldr	r3, .L190
 2955 0036 1340     		and	r3, r2
 2956 0038 0380     		strh	r3, [r0]
 2957              	.LVL319:
1222:Drivers/STM32F0xx_HAL_Driver/Src/stm32f0xx_hal_pcd.c ****         ep = &hpcd->IN_ep[0];
1223:Drivers/STM32F0xx_HAL_Driver/Src/stm32f0xx_hal_pcd.c ****         
1224:Drivers/STM32F0xx_HAL_Driver/Src/stm32f0xx_hal_pcd.c ****         ep->xfer_count = PCD_GET_EP_TX_CNT(hpcd->Instance, ep->num);
ARM GAS  /tmp/ccBeNIig.s 			page 75


 2958              		.loc 1 1224 0
 2959 003a 2368     		ldr	r3, [r4]
 2960 003c 5022     		mov	r2, #80
 2961 003e 995A     		ldrh	r1, [r3, r2]
 2962 0040 2822     		mov	r2, #40
 2963 0042 A25C     		ldrb	r2, [r4, r2]
 2964 0044 D200     		lsl	r2, r2, #3
 2965 0046 8A18     		add	r2, r1, r2
 2966 0048 D318     		add	r3, r2, r3
 2967 004a AE4E     		ldr	r6, .L190+4
 2968              	.LVL320:
 2969 004c 9B19     		add	r3, r3, r6
 2970 004e 1B88     		ldrh	r3, [r3]
 2971 0050 9B05     		lsl	r3, r3, #22
 2972 0052 9B0D     		lsr	r3, r3, #22
 2973 0054 2364     		str	r3, [r4, #64]
1225:Drivers/STM32F0xx_HAL_Driver/Src/stm32f0xx_hal_pcd.c ****         ep->xfer_buff += ep->xfer_count;
 2974              		.loc 1 1225 0
 2975 0056 A06B     		ldr	r0, [r4, #56]
 2976 0058 C318     		add	r3, r0, r3
 2977 005a A363     		str	r3, [r4, #56]
1226:Drivers/STM32F0xx_HAL_Driver/Src/stm32f0xx_hal_pcd.c ****  
1227:Drivers/STM32F0xx_HAL_Driver/Src/stm32f0xx_hal_pcd.c ****         /* TX COMPLETE */
1228:Drivers/STM32F0xx_HAL_Driver/Src/stm32f0xx_hal_pcd.c ****         HAL_PCD_DataInStageCallback(hpcd, 0U);
 2978              		.loc 1 1228 0
 2979 005c 201C     		mov	r0, r4
 2980 005e 0021     		mov	r1, #0
 2981 0060 FFF7FEFF 		bl	HAL_PCD_DataInStageCallback
 2982              	.LVL321:
1229:Drivers/STM32F0xx_HAL_Driver/Src/stm32f0xx_hal_pcd.c ****         
1230:Drivers/STM32F0xx_HAL_Driver/Src/stm32f0xx_hal_pcd.c ****         
1231:Drivers/STM32F0xx_HAL_Driver/Src/stm32f0xx_hal_pcd.c ****         if((hpcd->USB_Address > 0U)&& ( ep->xfer_len == 0U))
 2983              		.loc 1 1231 0
 2984 0064 2423     		mov	r3, #36
 2985 0066 E35C     		ldrb	r3, [r4, r3]
 2986 0068 002B     		cmp	r3, #0
 2987 006a 00D1     		bne	.LCB3262
 2988 006c 8DE1     		b	.L189	@long jump
 2989              	.LCB3262:
 2990              		.loc 1 1231 0 is_stmt 0 discriminator 1
 2991 006e E16B     		ldr	r1, [r4, #60]
 2992 0070 0029     		cmp	r1, #0
 2993 0072 00D0     		beq	.LCB3266
 2994 0074 89E1     		b	.L189	@long jump
 2995              	.LCB3266:
1232:Drivers/STM32F0xx_HAL_Driver/Src/stm32f0xx_hal_pcd.c ****         {
1233:Drivers/STM32F0xx_HAL_Driver/Src/stm32f0xx_hal_pcd.c ****           hpcd->Instance->DADDR = (hpcd->USB_Address | USB_DADDR_EF);
 2996              		.loc 1 1233 0 is_stmt 1
 2997 0076 2423     		mov	r3, #36
 2998 0078 E15C     		ldrb	r1, [r4, r3]
 2999 007a 8022     		mov	r2, #128
 3000 007c 1143     		orr	r1, r2
 3001 007e 4C22     		mov	r2, #76
 3002 0080 2668     		ldr	r6, [r4]
 3003 0082 B152     		strh	r1, [r6, r2]
1234:Drivers/STM32F0xx_HAL_Driver/Src/stm32f0xx_hal_pcd.c ****           hpcd->USB_Address = 0U;
 3004              		.loc 1 1234 0
ARM GAS  /tmp/ccBeNIig.s 			page 76


 3005 0084 0022     		mov	r2, #0
 3006 0086 E254     		strb	r2, [r4, r3]
 3007 0088 7FE1     		b	.L189
 3008              	.LVL322:
 3009              	.L168:
1235:Drivers/STM32F0xx_HAL_Driver/Src/stm32f0xx_hal_pcd.c ****         }
1236:Drivers/STM32F0xx_HAL_Driver/Src/stm32f0xx_hal_pcd.c ****         
1237:Drivers/STM32F0xx_HAL_Driver/Src/stm32f0xx_hal_pcd.c ****       }
1238:Drivers/STM32F0xx_HAL_Driver/Src/stm32f0xx_hal_pcd.c ****       else
1239:Drivers/STM32F0xx_HAL_Driver/Src/stm32f0xx_hal_pcd.c ****       {
1240:Drivers/STM32F0xx_HAL_Driver/Src/stm32f0xx_hal_pcd.c ****         /* DIR = 1 */
1241:Drivers/STM32F0xx_HAL_Driver/Src/stm32f0xx_hal_pcd.c ****         
1242:Drivers/STM32F0xx_HAL_Driver/Src/stm32f0xx_hal_pcd.c ****         /* DIR = 1 & CTR_RX       => SETUP or OUT int */
1243:Drivers/STM32F0xx_HAL_Driver/Src/stm32f0xx_hal_pcd.c ****         /* DIR = 1 & (CTR_TX | CTR_RX) => 2 int pending */
1244:Drivers/STM32F0xx_HAL_Driver/Src/stm32f0xx_hal_pcd.c ****         ep = &hpcd->OUT_ep[0];
1245:Drivers/STM32F0xx_HAL_Driver/Src/stm32f0xx_hal_pcd.c ****         wEPVal = PCD_GET_ENDPOINT(hpcd->Instance, PCD_ENDP0);
 3010              		.loc 1 1245 0
 3011 008a 0288     		ldrh	r2, [r0]
 3012 008c 01AB     		add	r3, sp, #4
 3013 008e 1A80     		strh	r2, [r3]
1246:Drivers/STM32F0xx_HAL_Driver/Src/stm32f0xx_hal_pcd.c ****         
1247:Drivers/STM32F0xx_HAL_Driver/Src/stm32f0xx_hal_pcd.c ****         if ((wEPVal & USB_EP_SETUP) != 0U)
 3014              		.loc 1 1247 0
 3015 0090 1B88     		ldrh	r3, [r3]
 3016 0092 1905     		lsl	r1, r3, #20
 3017 0094 1FD5     		bpl	.L170
1248:Drivers/STM32F0xx_HAL_Driver/Src/stm32f0xx_hal_pcd.c ****         {
1249:Drivers/STM32F0xx_HAL_Driver/Src/stm32f0xx_hal_pcd.c ****           /* Get SETUP Packet*/
1250:Drivers/STM32F0xx_HAL_Driver/Src/stm32f0xx_hal_pcd.c ****           ep->xfer_count = PCD_GET_EP_RX_CNT(hpcd->Instance, ep->num);
 3018              		.loc 1 1250 0
 3019 0096 5023     		mov	r3, #80
 3020 0098 C25A     		ldrh	r2, [r0, r3]
 3021 009a 8423     		mov	r3, #132
 3022 009c 5B00     		lsl	r3, r3, #1
 3023 009e E35C     		ldrb	r3, [r4, r3]
 3024 00a0 DB00     		lsl	r3, r3, #3
 3025 00a2 D318     		add	r3, r2, r3
 3026 00a4 1B18     		add	r3, r3, r0
 3027 00a6 984A     		ldr	r2, .L190+8
 3028 00a8 9B18     		add	r3, r3, r2
 3029 00aa 1B88     		ldrh	r3, [r3]
 3030 00ac 9B05     		lsl	r3, r3, #22
 3031 00ae 9B0D     		lsr	r3, r3, #22
 3032 00b0 8426     		mov	r6, #132
 3033              	.LVL323:
 3034 00b2 7600     		lsl	r6, r6, #1
 3035 00b4 A219     		add	r2, r4, r6
 3036 00b6 9361     		str	r3, [r2, #24]
1251:Drivers/STM32F0xx_HAL_Driver/Src/stm32f0xx_hal_pcd.c ****           PCD_ReadPMA(hpcd->Instance, (uint8_t*)(void*)hpcd->Setup ,ep->pmaadress , ep->xfer_count)
 3037              		.loc 1 1251 0
 3038 00b8 F626     		mov	r6, #246
 3039 00ba 7600     		lsl	r6, r6, #1
 3040 00bc A119     		add	r1, r4, r6
 3041 00be 9288     		ldrh	r2, [r2, #4]
 3042 00c0 FFF7FEFF 		bl	PCD_ReadPMA
 3043              	.LVL324:
1252:Drivers/STM32F0xx_HAL_Driver/Src/stm32f0xx_hal_pcd.c ****           /* SETUP bit kept frozen while CTR_RX = 1*/ 
ARM GAS  /tmp/ccBeNIig.s 			page 77


1253:Drivers/STM32F0xx_HAL_Driver/Src/stm32f0xx_hal_pcd.c ****           PCD_CLEAR_RX_EP_CTR(hpcd->Instance, PCD_ENDP0); 
 3044              		.loc 1 1253 0
 3045 00c4 2368     		ldr	r3, [r4]
 3046 00c6 1988     		ldrh	r1, [r3]
 3047 00c8 904A     		ldr	r2, .L190+12
 3048 00ca 0A40     		and	r2, r1
 3049 00cc 1A80     		strh	r2, [r3]
1254:Drivers/STM32F0xx_HAL_Driver/Src/stm32f0xx_hal_pcd.c ****           
1255:Drivers/STM32F0xx_HAL_Driver/Src/stm32f0xx_hal_pcd.c ****           /* Process SETUP Packet*/
1256:Drivers/STM32F0xx_HAL_Driver/Src/stm32f0xx_hal_pcd.c ****           HAL_PCD_SetupStageCallback(hpcd);
 3050              		.loc 1 1256 0
 3051 00ce 201C     		mov	r0, r4
 3052 00d0 FFF7FEFF 		bl	HAL_PCD_SetupStageCallback
 3053              	.LVL325:
 3054 00d4 59E1     		b	.L189
 3055              	.LVL326:
 3056              	.L170:
1257:Drivers/STM32F0xx_HAL_Driver/Src/stm32f0xx_hal_pcd.c ****         }
1258:Drivers/STM32F0xx_HAL_Driver/Src/stm32f0xx_hal_pcd.c ****         
1259:Drivers/STM32F0xx_HAL_Driver/Src/stm32f0xx_hal_pcd.c ****         else if ((wEPVal & USB_EP_CTR_RX) != 0U)
 3057              		.loc 1 1259 0
 3058 00d6 01AB     		add	r3, sp, #4
 3059 00d8 1B88     		ldrh	r3, [r3]
 3060 00da 1BB2     		sxth	r3, r3
 3061 00dc 002B     		cmp	r3, #0
 3062 00de 00DB     		blt	.LCB3344
 3063 00e0 53E1     		b	.L189	@long jump
 3064              	.LCB3344:
1260:Drivers/STM32F0xx_HAL_Driver/Src/stm32f0xx_hal_pcd.c ****         {
1261:Drivers/STM32F0xx_HAL_Driver/Src/stm32f0xx_hal_pcd.c ****           PCD_CLEAR_RX_EP_CTR(hpcd->Instance, PCD_ENDP0);
 3065              		.loc 1 1261 0
 3066 00e2 0288     		ldrh	r2, [r0]
 3067 00e4 894B     		ldr	r3, .L190+12
 3068 00e6 1340     		and	r3, r2
 3069 00e8 0380     		strh	r3, [r0]
1262:Drivers/STM32F0xx_HAL_Driver/Src/stm32f0xx_hal_pcd.c ****           /* Get Control Data OUT Packet*/
1263:Drivers/STM32F0xx_HAL_Driver/Src/stm32f0xx_hal_pcd.c ****           ep->xfer_count = PCD_GET_EP_RX_CNT(hpcd->Instance, ep->num);
 3070              		.loc 1 1263 0
 3071 00ea 2068     		ldr	r0, [r4]
 3072 00ec 5023     		mov	r3, #80
 3073 00ee C25A     		ldrh	r2, [r0, r3]
 3074 00f0 8423     		mov	r3, #132
 3075 00f2 5B00     		lsl	r3, r3, #1
 3076 00f4 E35C     		ldrb	r3, [r4, r3]
 3077 00f6 DB00     		lsl	r3, r3, #3
 3078 00f8 D318     		add	r3, r2, r3
 3079 00fa 1B18     		add	r3, r3, r0
 3080 00fc 8249     		ldr	r1, .L190+8
 3081 00fe 5B18     		add	r3, r3, r1
 3082 0100 1B88     		ldrh	r3, [r3]
 3083 0102 9B05     		lsl	r3, r3, #22
 3084 0104 9B0D     		lsr	r3, r3, #22
 3085 0106 8426     		mov	r6, #132
 3086              	.LVL327:
 3087 0108 7600     		lsl	r6, r6, #1
 3088 010a A219     		add	r2, r4, r6
 3089 010c 9361     		str	r3, [r2, #24]
ARM GAS  /tmp/ccBeNIig.s 			page 78


1264:Drivers/STM32F0xx_HAL_Driver/Src/stm32f0xx_hal_pcd.c ****           
1265:Drivers/STM32F0xx_HAL_Driver/Src/stm32f0xx_hal_pcd.c ****           if (ep->xfer_count != 0U)
 3090              		.loc 1 1265 0
 3091 010e 002B     		cmp	r3, #0
 3092 0110 08D0     		beq	.L171
1266:Drivers/STM32F0xx_HAL_Driver/Src/stm32f0xx_hal_pcd.c ****           {
1267:Drivers/STM32F0xx_HAL_Driver/Src/stm32f0xx_hal_pcd.c ****             PCD_ReadPMA(hpcd->Instance, ep->xfer_buff, ep->pmaadress, ep->xfer_count);
 3093              		.loc 1 1267 0
 3094 0112 161C     		mov	r6, r2
 3095 0114 9288     		ldrh	r2, [r2, #4]
 3096 0116 3169     		ldr	r1, [r6, #16]
 3097 0118 FFF7FEFF 		bl	PCD_ReadPMA
 3098              	.LVL328:
1268:Drivers/STM32F0xx_HAL_Driver/Src/stm32f0xx_hal_pcd.c ****             ep->xfer_buff+=ep->xfer_count;
 3099              		.loc 1 1268 0
 3100 011c 3069     		ldr	r0, [r6, #16]
 3101 011e B169     		ldr	r1, [r6, #24]
 3102 0120 4318     		add	r3, r0, r1
 3103 0122 3361     		str	r3, [r6, #16]
 3104              	.L171:
1269:Drivers/STM32F0xx_HAL_Driver/Src/stm32f0xx_hal_pcd.c ****           }
1270:Drivers/STM32F0xx_HAL_Driver/Src/stm32f0xx_hal_pcd.c ****           
1271:Drivers/STM32F0xx_HAL_Driver/Src/stm32f0xx_hal_pcd.c ****           /* Process Control Data OUT Packet*/
1272:Drivers/STM32F0xx_HAL_Driver/Src/stm32f0xx_hal_pcd.c ****            HAL_PCD_DataOutStageCallback(hpcd, 0U);
 3105              		.loc 1 1272 0
 3106 0124 201C     		mov	r0, r4
 3107 0126 0021     		mov	r1, #0
 3108 0128 FFF7FEFF 		bl	HAL_PCD_DataOutStageCallback
 3109              	.LVL329:
 3110              	.LBB33:
1273:Drivers/STM32F0xx_HAL_Driver/Src/stm32f0xx_hal_pcd.c ****           
1274:Drivers/STM32F0xx_HAL_Driver/Src/stm32f0xx_hal_pcd.c ****           PCD_SET_EP_RX_CNT(hpcd->Instance, PCD_ENDP0, ep->maxpacket)
 3111              		.loc 1 1274 0
 3112 012c 2368     		ldr	r3, [r4]
 3113 012e 5022     		mov	r2, #80
 3114 0130 9A5A     		ldrh	r2, [r3, r2]
 3115 0132 9B18     		add	r3, r3, r2
 3116 0134 744E     		ldr	r6, .L190+8
 3117 0136 9A19     		add	r2, r3, r6
 3118              	.LVL330:
 3119              	.LBB34:
 3120 0138 8420     		mov	r0, #132
 3121 013a 4000     		lsl	r0, r0, #1
 3122 013c 2318     		add	r3, r4, r0
 3123 013e DB68     		ldr	r3, [r3, #12]
 3124 0140 3E2B     		cmp	r3, #62
 3125 0142 0BD9     		bls	.L172
 3126              		.loc 1 1274 0 is_stmt 0 discriminator 1
 3127 0144 5909     		lsr	r1, r3, #5
 3128 0146 89B2     		uxth	r1, r1
 3129              	.LVL331:
 3130 0148 DE06     		lsl	r6, r3, #27
 3131 014a 01D1     		bne	.L173
 3132 014c 0139     		sub	r1, r1, #1
 3133              	.LVL332:
 3134 014e 89B2     		uxth	r1, r1
 3135              	.LVL333:
ARM GAS  /tmp/ccBeNIig.s 			page 79


 3136              	.L173:
 3137              		.loc 1 1274 0 discriminator 2
 3138 0150 8902     		lsl	r1, r1, #10
 3139              	.LVL334:
 3140 0152 8023     		mov	r3, #128
 3141 0154 1B02     		lsl	r3, r3, #8
 3142 0156 1943     		orr	r1, r3
 3143 0158 1180     		strh	r1, [r2]
 3144 015a 07E0     		b	.L174
 3145              	.L172:
 3146 015c 5908     		lsr	r1, r3, #1
 3147 015e 89B2     		uxth	r1, r1
 3148              	.LVL335:
 3149 0160 D807     		lsl	r0, r3, #31
 3150 0162 01D5     		bpl	.L175
 3151              		.loc 1 1274 0 discriminator 1
 3152 0164 0131     		add	r1, r1, #1
 3153              	.LVL336:
 3154 0166 89B2     		uxth	r1, r1
 3155              	.LVL337:
 3156              	.L175:
 3157              		.loc 1 1274 0 discriminator 2
 3158 0168 8902     		lsl	r1, r1, #10
 3159              	.LVL338:
 3160 016a 1180     		strh	r1, [r2]
 3161              	.L174:
 3162              	.LBE34:
 3163              	.LBE33:
 3164              	.LBB35:
1275:Drivers/STM32F0xx_HAL_Driver/Src/stm32f0xx_hal_pcd.c ****           PCD_SET_EP_RX_STATUS(hpcd->Instance, PCD_ENDP0, USB_EP_RX_VALID)
 3165              		.loc 1 1275 0 is_stmt 1
 3166 016c 2368     		ldr	r3, [r4]
 3167 016e 1988     		ldrh	r1, [r3]
 3168 0170 674A     		ldr	r2, .L190+16
 3169              	.LVL339:
 3170 0172 0A40     		and	r2, r1
 3171              	.LVL340:
 3172 0174 C021     		mov	r1, #192
 3173 0176 8901     		lsl	r1, r1, #6
 3174 0178 4A40     		eor	r2, r1
 3175              	.LVL341:
 3176 017a 6649     		ldr	r1, .L190+20
 3177 017c 0A43     		orr	r2, r1
 3178              	.LVL342:
 3179 017e 1A80     		strh	r2, [r3]
 3180              	.LVL343:
 3181 0180 03E1     		b	.L189
 3182              	.LVL344:
 3183              	.L167:
 3184              	.LBE35:
1276:Drivers/STM32F0xx_HAL_Driver/Src/stm32f0xx_hal_pcd.c ****         }
1277:Drivers/STM32F0xx_HAL_Driver/Src/stm32f0xx_hal_pcd.c ****       }
1278:Drivers/STM32F0xx_HAL_Driver/Src/stm32f0xx_hal_pcd.c ****     }
1279:Drivers/STM32F0xx_HAL_Driver/Src/stm32f0xx_hal_pcd.c ****     else
1280:Drivers/STM32F0xx_HAL_Driver/Src/stm32f0xx_hal_pcd.c ****     {
1281:Drivers/STM32F0xx_HAL_Driver/Src/stm32f0xx_hal_pcd.c ****       
1282:Drivers/STM32F0xx_HAL_Driver/Src/stm32f0xx_hal_pcd.c ****       /* Decode and service non control endpoints interrupt  */
ARM GAS  /tmp/ccBeNIig.s 			page 80


1283:Drivers/STM32F0xx_HAL_Driver/Src/stm32f0xx_hal_pcd.c ****       
1284:Drivers/STM32F0xx_HAL_Driver/Src/stm32f0xx_hal_pcd.c ****       /* process related endpoint register */
1285:Drivers/STM32F0xx_HAL_Driver/Src/stm32f0xx_hal_pcd.c ****       wEPVal = PCD_GET_ENDPOINT(hpcd->Instance, EPindex);
 3185              		.loc 1 1285 0
 3186 0182 B100     		lsl	r1, r6, #2
 3187 0184 8946     		mov	r9, r1
 3188 0186 2368     		ldr	r3, [r4]
 3189 0188 5A5A     		ldrh	r2, [r3, r1]
 3190 018a 01AB     		add	r3, sp, #4
 3191 018c 1A80     		strh	r2, [r3]
1286:Drivers/STM32F0xx_HAL_Driver/Src/stm32f0xx_hal_pcd.c ****       if ((wEPVal & USB_EP_CTR_RX) != 0U)
 3192              		.loc 1 1286 0
 3193 018e 1B88     		ldrh	r3, [r3]
 3194 0190 1BB2     		sxth	r3, r3
 3195 0192 002B     		cmp	r3, #0
 3196 0194 00DB     		blt	.LCB3506
 3197 0196 73E0     		b	.L176	@long jump
 3198              	.LCB3506:
1287:Drivers/STM32F0xx_HAL_Driver/Src/stm32f0xx_hal_pcd.c ****       {  
1288:Drivers/STM32F0xx_HAL_Driver/Src/stm32f0xx_hal_pcd.c ****         /* clear int flag */
1289:Drivers/STM32F0xx_HAL_Driver/Src/stm32f0xx_hal_pcd.c ****         PCD_CLEAR_RX_EP_CTR(hpcd->Instance, EPindex);
 3199              		.loc 1 1289 0
 3200 0198 4844     		add	r0, r0, r9
 3201 019a 0288     		ldrh	r2, [r0]
 3202 019c 5B4B     		ldr	r3, .L190+12
 3203 019e 1340     		and	r3, r2
 3204 01a0 0380     		strh	r3, [r0]
1290:Drivers/STM32F0xx_HAL_Driver/Src/stm32f0xx_hal_pcd.c ****         ep = &hpcd->OUT_ep[EPindex];
 3205              		.loc 1 1290 0
 3206 01a2 F300     		lsl	r3, r6, #3
 3207 01a4 9B1B     		sub	r3, r3, r6
 3208 01a6 9B00     		lsl	r3, r3, #2
 3209 01a8 0933     		add	r3, r3, #9
 3210 01aa FF33     		add	r3, r3, #255
 3211 01ac 1B19     		add	r3, r3, r4
 3212 01ae 9A46     		mov	r10, r3
 3213              	.LVL345:
1291:Drivers/STM32F0xx_HAL_Driver/Src/stm32f0xx_hal_pcd.c ****         
1292:Drivers/STM32F0xx_HAL_Driver/Src/stm32f0xx_hal_pcd.c ****         /* OUT double Buffering*/
1293:Drivers/STM32F0xx_HAL_Driver/Src/stm32f0xx_hal_pcd.c ****         if (ep->doublebuffer == 0U)
 3214              		.loc 1 1293 0
 3215 01b0 9B7A     		ldrb	r3, [r3, #10]
 3216              	.LVL346:
 3217 01b2 002B     		cmp	r3, #0
 3218 01b4 13D1     		bne	.L177
1294:Drivers/STM32F0xx_HAL_Driver/Src/stm32f0xx_hal_pcd.c ****         {
1295:Drivers/STM32F0xx_HAL_Driver/Src/stm32f0xx_hal_pcd.c ****           count = PCD_GET_EP_RX_CNT(hpcd->Instance, ep->num);
 3219              		.loc 1 1295 0
 3220 01b6 2068     		ldr	r0, [r4]
 3221 01b8 5023     		mov	r3, #80
 3222 01ba C25A     		ldrh	r2, [r0, r3]
 3223 01bc 5146     		mov	r1, r10
 3224 01be 0B78     		ldrb	r3, [r1]
 3225 01c0 DB00     		lsl	r3, r3, #3
 3226 01c2 D318     		add	r3, r2, r3
 3227 01c4 1B18     		add	r3, r3, r0
 3228 01c6 504A     		ldr	r2, .L190+8
ARM GAS  /tmp/ccBeNIig.s 			page 81


 3229 01c8 9B18     		add	r3, r3, r2
 3230 01ca 1B88     		ldrh	r3, [r3]
 3231 01cc 9B05     		lsl	r3, r3, #22
 3232 01ce 9B0D     		lsr	r3, r3, #22
 3233 01d0 9B46     		mov	fp, r3
 3234              	.LVL347:
1296:Drivers/STM32F0xx_HAL_Driver/Src/stm32f0xx_hal_pcd.c ****           if (count != 0U)
 3235              		.loc 1 1296 0
 3236 01d2 3BD0     		beq	.L178
1297:Drivers/STM32F0xx_HAL_Driver/Src/stm32f0xx_hal_pcd.c ****           {
1298:Drivers/STM32F0xx_HAL_Driver/Src/stm32f0xx_hal_pcd.c ****             PCD_ReadPMA(hpcd->Instance, ep->xfer_buff, ep->pmaadress, count);
 3237              		.loc 1 1298 0
 3238 01d4 8A88     		ldrh	r2, [r1, #4]
 3239 01d6 0969     		ldr	r1, [r1, #16]
 3240 01d8 FFF7FEFF 		bl	PCD_ReadPMA
 3241              	.LVL348:
 3242 01dc 36E0     		b	.L178
 3243              	.LVL349:
 3244              	.L177:
1299:Drivers/STM32F0xx_HAL_Driver/Src/stm32f0xx_hal_pcd.c ****           }
1300:Drivers/STM32F0xx_HAL_Driver/Src/stm32f0xx_hal_pcd.c ****         }
1301:Drivers/STM32F0xx_HAL_Driver/Src/stm32f0xx_hal_pcd.c ****         else
1302:Drivers/STM32F0xx_HAL_Driver/Src/stm32f0xx_hal_pcd.c ****         {
1303:Drivers/STM32F0xx_HAL_Driver/Src/stm32f0xx_hal_pcd.c ****           
1304:Drivers/STM32F0xx_HAL_Driver/Src/stm32f0xx_hal_pcd.c ****           if ((PCD_GET_ENDPOINT(hpcd->Instance, ep->num)& USB_EP_DTOG_RX) == USB_EP_DTOG_RX)
 3245              		.loc 1 1304 0
 3246 01de 2068     		ldr	r0, [r4]
 3247 01e0 5146     		mov	r1, r10
 3248 01e2 0B78     		ldrb	r3, [r1]
 3249 01e4 9A00     		lsl	r2, r3, #2
 3250 01e6 825A     		ldrh	r2, [r0, r2]
 3251 01e8 5104     		lsl	r1, r2, #17
 3252 01ea 12D5     		bpl	.L179
1305:Drivers/STM32F0xx_HAL_Driver/Src/stm32f0xx_hal_pcd.c ****           {
1306:Drivers/STM32F0xx_HAL_Driver/Src/stm32f0xx_hal_pcd.c ****             /*read from endpoint BUF0Addr buffer*/
1307:Drivers/STM32F0xx_HAL_Driver/Src/stm32f0xx_hal_pcd.c ****             count = PCD_GET_EP_DBUF0_CNT(hpcd->Instance, ep->num);
 3253              		.loc 1 1307 0
 3254 01ec 5022     		mov	r2, #80
 3255 01ee 825A     		ldrh	r2, [r0, r2]
 3256 01f0 DB00     		lsl	r3, r3, #3
 3257 01f2 D318     		add	r3, r2, r3
 3258 01f4 1B18     		add	r3, r3, r0
 3259 01f6 434A     		ldr	r2, .L190+4
 3260 01f8 9B18     		add	r3, r3, r2
 3261 01fa 1B88     		ldrh	r3, [r3]
 3262 01fc 9B05     		lsl	r3, r3, #22
 3263 01fe 9B0D     		lsr	r3, r3, #22
 3264 0200 9B46     		mov	fp, r3
 3265              	.LVL350:
1308:Drivers/STM32F0xx_HAL_Driver/Src/stm32f0xx_hal_pcd.c ****             if (count != 0U)
 3266              		.loc 1 1308 0
 3267 0202 18D0     		beq	.L180
1309:Drivers/STM32F0xx_HAL_Driver/Src/stm32f0xx_hal_pcd.c ****             {
1310:Drivers/STM32F0xx_HAL_Driver/Src/stm32f0xx_hal_pcd.c ****               PCD_ReadPMA(hpcd->Instance, ep->xfer_buff, ep->pmaaddr0, count);
 3268              		.loc 1 1310 0
 3269 0204 5346     		mov	r3, r10
 3270              	.LVL351:
ARM GAS  /tmp/ccBeNIig.s 			page 82


 3271 0206 DA88     		ldrh	r2, [r3, #6]
 3272 0208 1969     		ldr	r1, [r3, #16]
 3273 020a 5B46     		mov	r3, fp
 3274 020c FFF7FEFF 		bl	PCD_ReadPMA
 3275              	.LVL352:
 3276 0210 11E0     		b	.L180
 3277              	.LVL353:
 3278              	.L179:
1311:Drivers/STM32F0xx_HAL_Driver/Src/stm32f0xx_hal_pcd.c ****             }
1312:Drivers/STM32F0xx_HAL_Driver/Src/stm32f0xx_hal_pcd.c ****           }
1313:Drivers/STM32F0xx_HAL_Driver/Src/stm32f0xx_hal_pcd.c ****           else
1314:Drivers/STM32F0xx_HAL_Driver/Src/stm32f0xx_hal_pcd.c ****           {
1315:Drivers/STM32F0xx_HAL_Driver/Src/stm32f0xx_hal_pcd.c ****             /*read from endpoint BUF1Addr buffer*/
1316:Drivers/STM32F0xx_HAL_Driver/Src/stm32f0xx_hal_pcd.c ****             count = PCD_GET_EP_DBUF1_CNT(hpcd->Instance, ep->num);
 3279              		.loc 1 1316 0
 3280 0212 5022     		mov	r2, #80
 3281 0214 825A     		ldrh	r2, [r0, r2]
 3282 0216 DB00     		lsl	r3, r3, #3
 3283 0218 D318     		add	r3, r2, r3
 3284 021a 1B18     		add	r3, r3, r0
 3285 021c 3A49     		ldr	r1, .L190+8
 3286 021e 5B18     		add	r3, r3, r1
 3287 0220 1B88     		ldrh	r3, [r3]
 3288 0222 9B05     		lsl	r3, r3, #22
 3289 0224 9B0D     		lsr	r3, r3, #22
 3290 0226 9B46     		mov	fp, r3
 3291              	.LVL354:
1317:Drivers/STM32F0xx_HAL_Driver/Src/stm32f0xx_hal_pcd.c ****             if (count != 0U)
 3292              		.loc 1 1317 0
 3293 0228 05D0     		beq	.L180
1318:Drivers/STM32F0xx_HAL_Driver/Src/stm32f0xx_hal_pcd.c ****             {
1319:Drivers/STM32F0xx_HAL_Driver/Src/stm32f0xx_hal_pcd.c ****               PCD_ReadPMA(hpcd->Instance, ep->xfer_buff, ep->pmaaddr1, count);
 3294              		.loc 1 1319 0
 3295 022a 5346     		mov	r3, r10
 3296              	.LVL355:
 3297 022c 1A89     		ldrh	r2, [r3, #8]
 3298 022e 1969     		ldr	r1, [r3, #16]
 3299 0230 5B46     		mov	r3, fp
 3300 0232 FFF7FEFF 		bl	PCD_ReadPMA
 3301              	.LVL356:
 3302              	.L180:
1320:Drivers/STM32F0xx_HAL_Driver/Src/stm32f0xx_hal_pcd.c ****             }
1321:Drivers/STM32F0xx_HAL_Driver/Src/stm32f0xx_hal_pcd.c ****           }
1322:Drivers/STM32F0xx_HAL_Driver/Src/stm32f0xx_hal_pcd.c ****           PCD_FreeUserBuffer(hpcd->Instance, ep->num, PCD_EP_DBUF_OUT)  
 3303              		.loc 1 1322 0 discriminator 1
 3304 0236 5046     		mov	r0, r10
 3305 0238 0378     		ldrb	r3, [r0]
 3306 023a 9B00     		lsl	r3, r3, #2
 3307 023c 2168     		ldr	r1, [r4]
 3308 023e CB18     		add	r3, r1, r3
 3309 0240 1988     		ldrh	r1, [r3]
 3310 0242 354A     		ldr	r2, .L190+24
 3311 0244 0A40     		and	r2, r1
 3312 0246 3549     		ldr	r1, .L190+28
 3313 0248 0A43     		orr	r2, r1
 3314 024a 1A80     		strh	r2, [r3]
 3315              	.LVL357:
ARM GAS  /tmp/ccBeNIig.s 			page 83


 3316              	.L178:
1323:Drivers/STM32F0xx_HAL_Driver/Src/stm32f0xx_hal_pcd.c ****         }
1324:Drivers/STM32F0xx_HAL_Driver/Src/stm32f0xx_hal_pcd.c ****         /*multi-packet on the NON control OUT endpoint*/
1325:Drivers/STM32F0xx_HAL_Driver/Src/stm32f0xx_hal_pcd.c ****         ep->xfer_count+=count;
 3317              		.loc 1 1325 0
 3318 024c 5046     		mov	r0, r10
 3319 024e 8269     		ldr	r2, [r0, #24]
 3320 0250 131C     		mov	r3, r2
 3321 0252 5B44     		add	r3, r3, fp
 3322 0254 8361     		str	r3, [r0, #24]
1326:Drivers/STM32F0xx_HAL_Driver/Src/stm32f0xx_hal_pcd.c ****         ep->xfer_buff+=count;
 3323              		.loc 1 1326 0
 3324 0256 0169     		ldr	r1, [r0, #16]
 3325 0258 0A1C     		mov	r2, r1
 3326 025a 5A44     		add	r2, r2, fp
 3327 025c 0261     		str	r2, [r0, #16]
1327:Drivers/STM32F0xx_HAL_Driver/Src/stm32f0xx_hal_pcd.c ****        
1328:Drivers/STM32F0xx_HAL_Driver/Src/stm32f0xx_hal_pcd.c ****         if ((ep->xfer_len == 0U) || (count < ep->maxpacket))
 3328              		.loc 1 1328 0
 3329 025e 4369     		ldr	r3, [r0, #20]
 3330 0260 002B     		cmp	r3, #0
 3331 0262 02D0     		beq	.L181
 3332              	.LVL358:
 3333              		.loc 1 1328 0 is_stmt 0 discriminator 1
 3334 0264 C068     		ldr	r0, [r0, #12]
 3335              	.LVL359:
 3336 0266 8345     		cmp	fp, r0
 3337 0268 05D2     		bcs	.L182
 3338              	.L181:
1329:Drivers/STM32F0xx_HAL_Driver/Src/stm32f0xx_hal_pcd.c ****         {
1330:Drivers/STM32F0xx_HAL_Driver/Src/stm32f0xx_hal_pcd.c ****           /* RX COMPLETE */
1331:Drivers/STM32F0xx_HAL_Driver/Src/stm32f0xx_hal_pcd.c ****           HAL_PCD_DataOutStageCallback(hpcd, ep->num);
 3339              		.loc 1 1331 0 is_stmt 1
 3340 026a 5246     		mov	r2, r10
 3341 026c 1178     		ldrb	r1, [r2]
 3342 026e 201C     		mov	r0, r4
 3343 0270 FFF7FEFF 		bl	HAL_PCD_DataOutStageCallback
 3344              	.LVL360:
 3345 0274 04E0     		b	.L176
 3346              	.L182:
1332:Drivers/STM32F0xx_HAL_Driver/Src/stm32f0xx_hal_pcd.c ****         }
1333:Drivers/STM32F0xx_HAL_Driver/Src/stm32f0xx_hal_pcd.c ****         else
1334:Drivers/STM32F0xx_HAL_Driver/Src/stm32f0xx_hal_pcd.c ****         {
1335:Drivers/STM32F0xx_HAL_Driver/Src/stm32f0xx_hal_pcd.c ****           HAL_PCD_EP_Receive(hpcd, ep->num, ep->xfer_buff, ep->xfer_len);
 3347              		.loc 1 1335 0
 3348 0276 5046     		mov	r0, r10
 3349 0278 0178     		ldrb	r1, [r0]
 3350 027a 201C     		mov	r0, r4
 3351 027c FFF7FEFF 		bl	HAL_PCD_EP_Receive
 3352              	.LVL361:
 3353              	.L176:
1336:Drivers/STM32F0xx_HAL_Driver/Src/stm32f0xx_hal_pcd.c ****         }
1337:Drivers/STM32F0xx_HAL_Driver/Src/stm32f0xx_hal_pcd.c ****         
1338:Drivers/STM32F0xx_HAL_Driver/Src/stm32f0xx_hal_pcd.c ****       } /* if((wEPVal & EP_CTR_RX) */
1339:Drivers/STM32F0xx_HAL_Driver/Src/stm32f0xx_hal_pcd.c ****       
1340:Drivers/STM32F0xx_HAL_Driver/Src/stm32f0xx_hal_pcd.c ****       if ((wEPVal & USB_EP_CTR_TX) != 0U)
 3354              		.loc 1 1340 0
ARM GAS  /tmp/ccBeNIig.s 			page 84


 3355 0280 01AB     		add	r3, sp, #4
 3356 0282 1B88     		ldrh	r3, [r3]
 3357 0284 1906     		lsl	r1, r3, #24
 3358 0286 00D4     		bmi	.LCB3693
 3359 0288 7FE0     		b	.L189	@long jump
 3360              	.LCB3693:
1341:Drivers/STM32F0xx_HAL_Driver/Src/stm32f0xx_hal_pcd.c ****       {
1342:Drivers/STM32F0xx_HAL_Driver/Src/stm32f0xx_hal_pcd.c ****         ep = &hpcd->IN_ep[EPindex];
 3361              		.loc 1 1342 0
 3362 028a F300     		lsl	r3, r6, #3
 3363 028c 9E1B     		sub	r6, r3, r6
 3364              	.LVL362:
 3365 028e B600     		lsl	r6, r6, #2
 3366 0290 2836     		add	r6, r6, #40
 3367 0292 A619     		add	r6, r4, r6
 3368              	.LVL363:
1343:Drivers/STM32F0xx_HAL_Driver/Src/stm32f0xx_hal_pcd.c ****         
1344:Drivers/STM32F0xx_HAL_Driver/Src/stm32f0xx_hal_pcd.c ****         /* clear int flag */
1345:Drivers/STM32F0xx_HAL_Driver/Src/stm32f0xx_hal_pcd.c ****         PCD_CLEAR_TX_EP_CTR(hpcd->Instance, EPindex);
 3369              		.loc 1 1345 0
 3370 0294 2268     		ldr	r2, [r4]
 3371 0296 131C     		mov	r3, r2
 3372 0298 4B44     		add	r3, r3, r9
 3373 029a 1988     		ldrh	r1, [r3]
 3374 029c 184A     		ldr	r2, .L190
 3375 029e 0A40     		and	r2, r1
 3376 02a0 1A80     		strh	r2, [r3]
1346:Drivers/STM32F0xx_HAL_Driver/Src/stm32f0xx_hal_pcd.c ****         
1347:Drivers/STM32F0xx_HAL_Driver/Src/stm32f0xx_hal_pcd.c ****         /* IN double Buffering*/
1348:Drivers/STM32F0xx_HAL_Driver/Src/stm32f0xx_hal_pcd.c ****         if (ep->doublebuffer == 0U)
 3377              		.loc 1 1348 0
 3378 02a2 B37A     		ldrb	r3, [r6, #10]
 3379 02a4 002B     		cmp	r3, #0
 3380 02a6 13D1     		bne	.L183
1349:Drivers/STM32F0xx_HAL_Driver/Src/stm32f0xx_hal_pcd.c ****         {
1350:Drivers/STM32F0xx_HAL_Driver/Src/stm32f0xx_hal_pcd.c ****           ep->xfer_count = PCD_GET_EP_TX_CNT(hpcd->Instance, ep->num);
 3381              		.loc 1 1350 0
 3382 02a8 2368     		ldr	r3, [r4]
 3383 02aa 5022     		mov	r2, #80
 3384 02ac 995A     		ldrh	r1, [r3, r2]
 3385 02ae 3278     		ldrb	r2, [r6]
 3386 02b0 D200     		lsl	r2, r2, #3
 3387 02b2 8A18     		add	r2, r1, r2
 3388 02b4 D318     		add	r3, r2, r3
 3389 02b6 1348     		ldr	r0, .L190+4
 3390 02b8 1B18     		add	r3, r3, r0
 3391 02ba 1B88     		ldrh	r3, [r3]
 3392 02bc 9B05     		lsl	r3, r3, #22
 3393 02be 9B0D     		lsr	r3, r3, #22
 3394 02c0 B361     		str	r3, [r6, #24]
1351:Drivers/STM32F0xx_HAL_Driver/Src/stm32f0xx_hal_pcd.c ****           if (ep->xfer_count != 0)
 3395              		.loc 1 1351 0
 3396 02c2 48D0     		beq	.L184
1352:Drivers/STM32F0xx_HAL_Driver/Src/stm32f0xx_hal_pcd.c ****           {
1353:Drivers/STM32F0xx_HAL_Driver/Src/stm32f0xx_hal_pcd.c ****             PCD_WritePMA(hpcd->Instance, ep->xfer_buff, ep->pmaadress, ep->xfer_count);
 3397              		.loc 1 1353 0
 3398 02c4 B288     		ldrh	r2, [r6, #4]
ARM GAS  /tmp/ccBeNIig.s 			page 85


 3399 02c6 2068     		ldr	r0, [r4]
 3400 02c8 3169     		ldr	r1, [r6, #16]
 3401 02ca FFF7FEFF 		bl	PCD_WritePMA
 3402              	.LVL364:
 3403 02ce 42E0     		b	.L184
 3404              	.L183:
1354:Drivers/STM32F0xx_HAL_Driver/Src/stm32f0xx_hal_pcd.c ****           }
1355:Drivers/STM32F0xx_HAL_Driver/Src/stm32f0xx_hal_pcd.c ****         }
1356:Drivers/STM32F0xx_HAL_Driver/Src/stm32f0xx_hal_pcd.c ****         else
1357:Drivers/STM32F0xx_HAL_Driver/Src/stm32f0xx_hal_pcd.c ****         {
1358:Drivers/STM32F0xx_HAL_Driver/Src/stm32f0xx_hal_pcd.c ****           if ((PCD_GET_ENDPOINT(hpcd->Instance, ep->num)& USB_EP_DTOG_TX) == USB_EP_DTOG_TX)
 3405              		.loc 1 1358 0
 3406 02d0 2368     		ldr	r3, [r4]
 3407 02d2 3278     		ldrb	r2, [r6]
 3408 02d4 9100     		lsl	r1, r2, #2
 3409 02d6 595A     		ldrh	r1, [r3, r1]
 3410 02d8 4806     		lsl	r0, r1, #25
 3411 02da 21D5     		bpl	.L185
1359:Drivers/STM32F0xx_HAL_Driver/Src/stm32f0xx_hal_pcd.c ****           {
1360:Drivers/STM32F0xx_HAL_Driver/Src/stm32f0xx_hal_pcd.c ****             /*read from endpoint BUF0Addr buffer*/
1361:Drivers/STM32F0xx_HAL_Driver/Src/stm32f0xx_hal_pcd.c ****             ep->xfer_count = PCD_GET_EP_DBUF0_CNT(hpcd->Instance, ep->num);
 3412              		.loc 1 1361 0
 3413 02dc 5021     		mov	r1, #80
 3414 02de 595A     		ldrh	r1, [r3, r1]
 3415 02e0 D200     		lsl	r2, r2, #3
 3416 02e2 8A18     		add	r2, r1, r2
 3417 02e4 D318     		add	r3, r2, r3
 3418 02e6 0749     		ldr	r1, .L190+4
 3419 02e8 5B18     		add	r3, r3, r1
 3420 02ea 1B88     		ldrh	r3, [r3]
 3421 02ec 9B05     		lsl	r3, r3, #22
 3422 02ee 9B0D     		lsr	r3, r3, #22
 3423 02f0 B361     		str	r3, [r6, #24]
1362:Drivers/STM32F0xx_HAL_Driver/Src/stm32f0xx_hal_pcd.c ****             if (ep->xfer_count != 0U)
 3424              		.loc 1 1362 0
 3425 02f2 26D0     		beq	.L186
1363:Drivers/STM32F0xx_HAL_Driver/Src/stm32f0xx_hal_pcd.c ****             {
1364:Drivers/STM32F0xx_HAL_Driver/Src/stm32f0xx_hal_pcd.c ****               PCD_WritePMA(hpcd->Instance, ep->xfer_buff, ep->pmaaddr0, ep->xfer_count);
 3426              		.loc 1 1364 0
 3427 02f4 F288     		ldrh	r2, [r6, #6]
 3428 02f6 2068     		ldr	r0, [r4]
 3429 02f8 3169     		ldr	r1, [r6, #16]
 3430 02fa FFF7FEFF 		bl	PCD_WritePMA
 3431              	.LVL365:
 3432 02fe 20E0     		b	.L186
 3433              	.L191:
 3434              		.align	2
 3435              	.L190:
 3436 0300 0F8FFFFF 		.word	-28913
 3437 0304 02040000 		.word	1026
 3438 0308 06040000 		.word	1030
 3439 030c 8F0F0000 		.word	3983
 3440 0310 8FBFFFFF 		.word	-16497
 3441 0314 80800000 		.word	32896
 3442 0318 0F0F0000 		.word	3855
 3443 031c C0800000 		.word	32960
 3444              	.L185:
ARM GAS  /tmp/ccBeNIig.s 			page 86


1365:Drivers/STM32F0xx_HAL_Driver/Src/stm32f0xx_hal_pcd.c ****             }
1366:Drivers/STM32F0xx_HAL_Driver/Src/stm32f0xx_hal_pcd.c ****           }
1367:Drivers/STM32F0xx_HAL_Driver/Src/stm32f0xx_hal_pcd.c ****           else
1368:Drivers/STM32F0xx_HAL_Driver/Src/stm32f0xx_hal_pcd.c ****           {
1369:Drivers/STM32F0xx_HAL_Driver/Src/stm32f0xx_hal_pcd.c ****             /*read from endpoint BUF1Addr buffer*/
1370:Drivers/STM32F0xx_HAL_Driver/Src/stm32f0xx_hal_pcd.c ****             ep->xfer_count = PCD_GET_EP_DBUF1_CNT(hpcd->Instance, ep->num);
 3445              		.loc 1 1370 0
 3446 0320 5021     		mov	r1, #80
 3447 0322 595A     		ldrh	r1, [r3, r1]
 3448 0324 D200     		lsl	r2, r2, #3
 3449 0326 8A18     		add	r2, r1, r2
 3450 0328 D318     		add	r3, r2, r3
 3451 032a 204A     		ldr	r2, .L192
 3452 032c 9B18     		add	r3, r3, r2
 3453 032e 1B88     		ldrh	r3, [r3]
 3454 0330 9B05     		lsl	r3, r3, #22
 3455 0332 9B0D     		lsr	r3, r3, #22
 3456 0334 B361     		str	r3, [r6, #24]
1371:Drivers/STM32F0xx_HAL_Driver/Src/stm32f0xx_hal_pcd.c ****             if (ep->xfer_count != 0U)
 3457              		.loc 1 1371 0
 3458 0336 04D0     		beq	.L186
1372:Drivers/STM32F0xx_HAL_Driver/Src/stm32f0xx_hal_pcd.c ****             {
1373:Drivers/STM32F0xx_HAL_Driver/Src/stm32f0xx_hal_pcd.c ****               PCD_WritePMA(hpcd->Instance, ep->xfer_buff, ep->pmaaddr1, ep->xfer_count);
 3459              		.loc 1 1373 0
 3460 0338 3289     		ldrh	r2, [r6, #8]
 3461 033a 2068     		ldr	r0, [r4]
 3462 033c 3169     		ldr	r1, [r6, #16]
 3463 033e FFF7FEFF 		bl	PCD_WritePMA
 3464              	.LVL366:
 3465              	.L186:
1374:Drivers/STM32F0xx_HAL_Driver/Src/stm32f0xx_hal_pcd.c ****             }
1375:Drivers/STM32F0xx_HAL_Driver/Src/stm32f0xx_hal_pcd.c ****           }
1376:Drivers/STM32F0xx_HAL_Driver/Src/stm32f0xx_hal_pcd.c ****           PCD_FreeUserBuffer(hpcd->Instance, ep->num, PCD_EP_DBUF_IN) 
 3466              		.loc 1 1376 0 discriminator 1
 3467 0342 3378     		ldrb	r3, [r6]
 3468 0344 9B00     		lsl	r3, r3, #2
 3469 0346 2068     		ldr	r0, [r4]
 3470 0348 C318     		add	r3, r0, r3
 3471 034a 1988     		ldrh	r1, [r3]
 3472 034c 184A     		ldr	r2, .L192+4
 3473 034e 0A40     		and	r2, r1
 3474 0350 1849     		ldr	r1, .L192+8
 3475 0352 0A43     		orr	r2, r1
 3476 0354 1A80     		strh	r2, [r3]
 3477              	.L184:
1377:Drivers/STM32F0xx_HAL_Driver/Src/stm32f0xx_hal_pcd.c ****         }
1378:Drivers/STM32F0xx_HAL_Driver/Src/stm32f0xx_hal_pcd.c ****         /*multi-packet on the NON control IN endpoint*/
1379:Drivers/STM32F0xx_HAL_Driver/Src/stm32f0xx_hal_pcd.c ****         ep->xfer_count = PCD_GET_EP_TX_CNT(hpcd->Instance, ep->num);
 3478              		.loc 1 1379 0
 3479 0356 2368     		ldr	r3, [r4]
 3480 0358 5022     		mov	r2, #80
 3481 035a 985A     		ldrh	r0, [r3, r2]
 3482 035c 3178     		ldrb	r1, [r6]
 3483 035e CA00     		lsl	r2, r1, #3
 3484 0360 8218     		add	r2, r0, r2
 3485 0362 D318     		add	r3, r2, r3
 3486 0364 144A     		ldr	r2, .L192+12
ARM GAS  /tmp/ccBeNIig.s 			page 87


 3487 0366 9B18     		add	r3, r3, r2
 3488 0368 1A88     		ldrh	r2, [r3]
 3489 036a 9205     		lsl	r2, r2, #22
 3490 036c 920D     		lsr	r2, r2, #22
 3491 036e B261     		str	r2, [r6, #24]
1380:Drivers/STM32F0xx_HAL_Driver/Src/stm32f0xx_hal_pcd.c ****         ep->xfer_buff+=ep->xfer_count;
 3492              		.loc 1 1380 0
 3493 0370 3369     		ldr	r3, [r6, #16]
 3494 0372 9A18     		add	r2, r3, r2
 3495 0374 3261     		str	r2, [r6, #16]
1381:Drivers/STM32F0xx_HAL_Driver/Src/stm32f0xx_hal_pcd.c ****        
1382:Drivers/STM32F0xx_HAL_Driver/Src/stm32f0xx_hal_pcd.c ****         /* Zero Length Packet? */
1383:Drivers/STM32F0xx_HAL_Driver/Src/stm32f0xx_hal_pcd.c ****         if (ep->xfer_len == 0U)
 3496              		.loc 1 1383 0
 3497 0376 7369     		ldr	r3, [r6, #20]
 3498 0378 002B     		cmp	r3, #0
 3499 037a 03D1     		bne	.L187
1384:Drivers/STM32F0xx_HAL_Driver/Src/stm32f0xx_hal_pcd.c ****         {
1385:Drivers/STM32F0xx_HAL_Driver/Src/stm32f0xx_hal_pcd.c ****           /* TX COMPLETE */
1386:Drivers/STM32F0xx_HAL_Driver/Src/stm32f0xx_hal_pcd.c ****           HAL_PCD_DataInStageCallback(hpcd, ep->num);
 3500              		.loc 1 1386 0
 3501 037c 201C     		mov	r0, r4
 3502 037e FFF7FEFF 		bl	HAL_PCD_DataInStageCallback
 3503              	.LVL367:
 3504 0382 02E0     		b	.L189
 3505              	.L187:
1387:Drivers/STM32F0xx_HAL_Driver/Src/stm32f0xx_hal_pcd.c ****         }
1388:Drivers/STM32F0xx_HAL_Driver/Src/stm32f0xx_hal_pcd.c ****         else
1389:Drivers/STM32F0xx_HAL_Driver/Src/stm32f0xx_hal_pcd.c ****         {
1390:Drivers/STM32F0xx_HAL_Driver/Src/stm32f0xx_hal_pcd.c ****           HAL_PCD_EP_Transmit(hpcd, ep->num, ep->xfer_buff, ep->xfer_len);
 3506              		.loc 1 1390 0
 3507 0384 201C     		mov	r0, r4
 3508 0386 FFF7FEFF 		bl	HAL_PCD_EP_Transmit
 3509              	.LVL368:
 3510              	.L189:
1205:Drivers/STM32F0xx_HAL_Driver/Src/stm32f0xx_hal_pcd.c ****   while (((wIstr = hpcd->Instance->ISTR) & USB_ISTR_CTR) != 0U)
 3511              		.loc 1 1205 0 discriminator 1
 3512 038a 2068     		ldr	r0, [r4]
 3513 038c C35B     		ldrh	r3, [r0, r7]
 3514 038e 9BB2     		uxth	r3, r3
 3515 0390 2B80     		strh	r3, [r5]
 3516 0392 1BB2     		sxth	r3, r3
 3517 0394 002B     		cmp	r3, #0
 3518 0396 00DA     		bge	.LCB3877
 3519 0398 43E6     		b	.L188	@long jump
 3520              	.LCB3877:
1391:Drivers/STM32F0xx_HAL_Driver/Src/stm32f0xx_hal_pcd.c ****         }
1392:Drivers/STM32F0xx_HAL_Driver/Src/stm32f0xx_hal_pcd.c ****       } 
1393:Drivers/STM32F0xx_HAL_Driver/Src/stm32f0xx_hal_pcd.c ****     }
1394:Drivers/STM32F0xx_HAL_Driver/Src/stm32f0xx_hal_pcd.c ****   }
1395:Drivers/STM32F0xx_HAL_Driver/Src/stm32f0xx_hal_pcd.c ****   return HAL_OK;
1396:Drivers/STM32F0xx_HAL_Driver/Src/stm32f0xx_hal_pcd.c **** }
 3521              		.loc 1 1396 0
 3522 039a 0020     		mov	r0, #0
 3523 039c 03B0     		add	sp, sp, #12
 3524              		@ sp needed
 3525              	.LVL369:
ARM GAS  /tmp/ccBeNIig.s 			page 88


 3526 039e 3CBC     		pop	{r2, r3, r4, r5}
 3527 03a0 9046     		mov	r8, r2
 3528 03a2 9946     		mov	r9, r3
 3529 03a4 A246     		mov	r10, r4
 3530 03a6 AB46     		mov	fp, r5
 3531 03a8 F0BD     		pop	{r4, r5, r6, r7, pc}
 3532              	.L193:
 3533 03aa C046     		.align	2
 3534              	.L192:
 3535 03ac 06040000 		.word	1030
 3536 03b0 0F0F0000 		.word	3855
 3537 03b4 80C00000 		.word	49280
 3538 03b8 02040000 		.word	1026
 3539              		.cfi_endproc
 3540              	.LFE68:
 3542              		.section	.text.HAL_PCD_IRQHandler,"ax",%progbits
 3543              		.align	2
 3544              		.global	HAL_PCD_IRQHandler
 3545              		.code	16
 3546              		.thumb_func
 3548              	HAL_PCD_IRQHandler:
 3549              	.LFB40:
 328:Drivers/STM32F0xx_HAL_Driver/Src/stm32f0xx_hal_pcd.c **** {
 3550              		.loc 1 328 0
 3551              		.cfi_startproc
 3552              	.LVL370:
 3553 0000 38B5     		push	{r3, r4, r5, lr}
 3554              	.LCFI16:
 3555              		.cfi_def_cfa_offset 16
 3556              		.cfi_offset 3, -16
 3557              		.cfi_offset 4, -12
 3558              		.cfi_offset 5, -8
 3559              		.cfi_offset 14, -4
 3560 0002 041C     		mov	r4, r0
 3561              	.LVL371:
 331:Drivers/STM32F0xx_HAL_Driver/Src/stm32f0xx_hal_pcd.c ****   if (__HAL_PCD_GET_FLAG (hpcd, USB_ISTR_CTR))
 3562              		.loc 1 331 0
 3563 0004 4423     		mov	r3, #68
 3564 0006 0168     		ldr	r1, [r0]
 3565 0008 CB5A     		ldrh	r3, [r1, r3]
 3566 000a 1BB2     		sxth	r3, r3
 3567 000c 002B     		cmp	r3, #0
 3568 000e 01DA     		bge	.L195
 335:Drivers/STM32F0xx_HAL_Driver/Src/stm32f0xx_hal_pcd.c ****     PCD_EP_ISR_Handler(hpcd);
 3569              		.loc 1 335 0
 3570 0010 FFF7FEFF 		bl	PCD_EP_ISR_Handler
 3571              	.LVL372:
 3572              	.L195:
 338:Drivers/STM32F0xx_HAL_Driver/Src/stm32f0xx_hal_pcd.c ****   if (__HAL_PCD_GET_FLAG (hpcd, USB_ISTR_RESET))
 3573              		.loc 1 338 0
 3574 0014 2368     		ldr	r3, [r4]
 3575 0016 4422     		mov	r2, #68
 3576 0018 9A5A     		ldrh	r2, [r3, r2]
 3577 001a 5105     		lsl	r1, r2, #21
 3578 001c 0BD5     		bpl	.L196
 340:Drivers/STM32F0xx_HAL_Driver/Src/stm32f0xx_hal_pcd.c ****     __HAL_PCD_CLEAR_FLAG(hpcd, USB_ISTR_RESET);
 3579              		.loc 1 340 0
ARM GAS  /tmp/ccBeNIig.s 			page 89


 3580 001e 4422     		mov	r2, #68
 3581 0020 985A     		ldrh	r0, [r3, r2]
 3582 0022 3449     		ldr	r1, .L203
 3583 0024 0140     		and	r1, r0
 3584 0026 9952     		strh	r1, [r3, r2]
 341:Drivers/STM32F0xx_HAL_Driver/Src/stm32f0xx_hal_pcd.c ****     HAL_PCD_ResetCallback(hpcd);
 3585              		.loc 1 341 0
 3586 0028 201C     		mov	r0, r4
 3587 002a FFF7FEFF 		bl	HAL_PCD_ResetCallback
 3588              	.LVL373:
 342:Drivers/STM32F0xx_HAL_Driver/Src/stm32f0xx_hal_pcd.c ****     HAL_PCD_SetAddress(hpcd, 0U);
 3589              		.loc 1 342 0
 3590 002e 201C     		mov	r0, r4
 3591 0030 0021     		mov	r1, #0
 3592 0032 FFF7FEFF 		bl	HAL_PCD_SetAddress
 3593              	.LVL374:
 3594              	.L196:
 345:Drivers/STM32F0xx_HAL_Driver/Src/stm32f0xx_hal_pcd.c ****   if (__HAL_PCD_GET_FLAG (hpcd, USB_ISTR_PMAOVR))
 3595              		.loc 1 345 0
 3596 0036 2368     		ldr	r3, [r4]
 3597 0038 4422     		mov	r2, #68
 3598 003a 9A5A     		ldrh	r2, [r3, r2]
 3599 003c 5104     		lsl	r1, r2, #17
 3600 003e 04D5     		bpl	.L197
 347:Drivers/STM32F0xx_HAL_Driver/Src/stm32f0xx_hal_pcd.c ****     __HAL_PCD_CLEAR_FLAG(hpcd, USB_ISTR_PMAOVR);    
 3601              		.loc 1 347 0
 3602 0040 4422     		mov	r2, #68
 3603 0042 985A     		ldrh	r0, [r3, r2]
 3604 0044 2C49     		ldr	r1, .L203+4
 3605 0046 0140     		and	r1, r0
 3606 0048 9952     		strh	r1, [r3, r2]
 3607              	.L197:
 350:Drivers/STM32F0xx_HAL_Driver/Src/stm32f0xx_hal_pcd.c ****   if (__HAL_PCD_GET_FLAG (hpcd, USB_ISTR_ERR))
 3608              		.loc 1 350 0
 3609 004a 2368     		ldr	r3, [r4]
 3610 004c 4422     		mov	r2, #68
 3611 004e 9A5A     		ldrh	r2, [r3, r2]
 3612 0050 9104     		lsl	r1, r2, #18
 3613 0052 04D5     		bpl	.L198
 352:Drivers/STM32F0xx_HAL_Driver/Src/stm32f0xx_hal_pcd.c ****     __HAL_PCD_CLEAR_FLAG(hpcd, USB_ISTR_ERR); 
 3614              		.loc 1 352 0
 3615 0054 4422     		mov	r2, #68
 3616 0056 985A     		ldrh	r0, [r3, r2]
 3617 0058 2849     		ldr	r1, .L203+8
 3618 005a 0140     		and	r1, r0
 3619 005c 9952     		strh	r1, [r3, r2]
 3620              	.L198:
 355:Drivers/STM32F0xx_HAL_Driver/Src/stm32f0xx_hal_pcd.c ****   if (__HAL_PCD_GET_FLAG (hpcd, USB_ISTR_WKUP))
 3621              		.loc 1 355 0
 3622 005e 2368     		ldr	r3, [r4]
 3623 0060 4422     		mov	r2, #68
 3624 0062 9A5A     		ldrh	r2, [r3, r2]
 3625 0064 D104     		lsl	r1, r2, #19
 3626 0066 10D5     		bpl	.L199
 358:Drivers/STM32F0xx_HAL_Driver/Src/stm32f0xx_hal_pcd.c ****     hpcd->Instance->CNTR &= (uint16_t)(~(USB_CNTR_LPMODE));
 3627              		.loc 1 358 0
 3628 0068 4022     		mov	r2, #64
ARM GAS  /tmp/ccBeNIig.s 			page 90


 3629 006a 995A     		ldrh	r1, [r3, r2]
 3630 006c 0420     		mov	r0, #4
 3631 006e 8143     		bic	r1, r0
 3632 0070 9952     		strh	r1, [r3, r2]
 3633              	.LVL375:
 365:Drivers/STM32F0xx_HAL_Driver/Src/stm32f0xx_hal_pcd.c ****     hpcd->Instance->CNTR = wInterrupt_Mask;
 3634              		.loc 1 365 0
 3635 0072 234B     		ldr	r3, .L203+12
 3636 0074 2168     		ldr	r1, [r4]
 3637 0076 8B52     		strh	r3, [r1, r2]
 367:Drivers/STM32F0xx_HAL_Driver/Src/stm32f0xx_hal_pcd.c ****     HAL_PCD_ResumeCallback(hpcd);
 3638              		.loc 1 367 0
 3639 0078 201C     		mov	r0, r4
 3640 007a FFF7FEFF 		bl	HAL_PCD_ResumeCallback
 3641              	.LVL376:
 369:Drivers/STM32F0xx_HAL_Driver/Src/stm32f0xx_hal_pcd.c ****     __HAL_PCD_CLEAR_FLAG(hpcd, USB_ISTR_WKUP);     
 3642              		.loc 1 369 0
 3643 007e 2368     		ldr	r3, [r4]
 3644 0080 4422     		mov	r2, #68
 3645 0082 985A     		ldrh	r0, [r3, r2]
 3646 0084 1F49     		ldr	r1, .L203+16
 3647 0086 0140     		and	r1, r0
 3648 0088 9952     		strh	r1, [r3, r2]
 3649              	.LVL377:
 3650              	.L199:
 372:Drivers/STM32F0xx_HAL_Driver/Src/stm32f0xx_hal_pcd.c ****   if (__HAL_PCD_GET_FLAG (hpcd, USB_ISTR_SUSP))
 3651              		.loc 1 372 0
 3652 008a 2368     		ldr	r3, [r4]
 3653 008c 4422     		mov	r2, #68
 3654 008e 9A5A     		ldrh	r2, [r3, r2]
 3655 0090 1105     		lsl	r1, r2, #20
 3656 0092 16D5     		bpl	.L200
 375:Drivers/STM32F0xx_HAL_Driver/Src/stm32f0xx_hal_pcd.c ****     __HAL_PCD_CLEAR_FLAG(hpcd, USB_ISTR_SUSP);  
 3657              		.loc 1 375 0
 3658 0094 4422     		mov	r2, #68
 3659 0096 985A     		ldrh	r0, [r3, r2]
 3660 0098 1B49     		ldr	r1, .L203+20
 3661 009a 0140     		and	r1, r0
 3662 009c 9952     		strh	r1, [r3, r2]
 378:Drivers/STM32F0xx_HAL_Driver/Src/stm32f0xx_hal_pcd.c ****     hpcd->Instance->CNTR |= USB_CNTR_FSUSP;
 3663              		.loc 1 378 0
 3664 009e 2168     		ldr	r1, [r4]
 3665 00a0 4023     		mov	r3, #64
 3666 00a2 CD5A     		ldrh	r5, [r1, r3]
 3667 00a4 0820     		mov	r0, #8
 3668 00a6 2843     		orr	r0, r5
 3669 00a8 C852     		strh	r0, [r1, r3]
 379:Drivers/STM32F0xx_HAL_Driver/Src/stm32f0xx_hal_pcd.c ****     hpcd->Instance->CNTR |= USB_CNTR_LPMODE;
 3670              		.loc 1 379 0
 3671 00aa 2168     		ldr	r1, [r4]
 3672 00ac CD5A     		ldrh	r5, [r1, r3]
 3673 00ae 0420     		mov	r0, #4
 3674 00b0 2843     		orr	r0, r5
 3675 00b2 C852     		strh	r0, [r1, r3]
 381:Drivers/STM32F0xx_HAL_Driver/Src/stm32f0xx_hal_pcd.c ****     if (__HAL_PCD_GET_FLAG (hpcd, USB_ISTR_WKUP) == 0)
 3676              		.loc 1 381 0
 3677 00b4 2168     		ldr	r1, [r4]
ARM GAS  /tmp/ccBeNIig.s 			page 91


 3678 00b6 8B5A     		ldrh	r3, [r1, r2]
 3679 00b8 DA04     		lsl	r2, r3, #19
 3680 00ba 02D4     		bmi	.L200
 383:Drivers/STM32F0xx_HAL_Driver/Src/stm32f0xx_hal_pcd.c ****       HAL_PCD_SuspendCallback(hpcd);
 3681              		.loc 1 383 0
 3682 00bc 201C     		mov	r0, r4
 3683 00be FFF7FEFF 		bl	HAL_PCD_SuspendCallback
 3684              	.LVL378:
 3685              	.L200:
 387:Drivers/STM32F0xx_HAL_Driver/Src/stm32f0xx_hal_pcd.c ****   if (__HAL_PCD_GET_FLAG (hpcd, USB_ISTR_SOF))
 3686              		.loc 1 387 0
 3687 00c2 2368     		ldr	r3, [r4]
 3688 00c4 4422     		mov	r2, #68
 3689 00c6 9A5A     		ldrh	r2, [r3, r2]
 3690 00c8 9105     		lsl	r1, r2, #22
 3691 00ca 07D5     		bpl	.L201
 389:Drivers/STM32F0xx_HAL_Driver/Src/stm32f0xx_hal_pcd.c ****     __HAL_PCD_CLEAR_FLAG(hpcd, USB_ISTR_SOF); 
 3692              		.loc 1 389 0
 3693 00cc 4422     		mov	r2, #68
 3694 00ce 985A     		ldrh	r0, [r3, r2]
 3695 00d0 0E49     		ldr	r1, .L203+24
 3696 00d2 0140     		and	r1, r0
 3697 00d4 9952     		strh	r1, [r3, r2]
 390:Drivers/STM32F0xx_HAL_Driver/Src/stm32f0xx_hal_pcd.c ****     HAL_PCD_SOFCallback(hpcd);
 3698              		.loc 1 390 0
 3699 00d6 201C     		mov	r0, r4
 3700 00d8 FFF7FEFF 		bl	HAL_PCD_SOFCallback
 3701              	.LVL379:
 3702              	.L201:
 393:Drivers/STM32F0xx_HAL_Driver/Src/stm32f0xx_hal_pcd.c ****   if (__HAL_PCD_GET_FLAG (hpcd, USB_ISTR_ESOF))
 3703              		.loc 1 393 0
 3704 00dc 2368     		ldr	r3, [r4]
 3705 00de 4422     		mov	r2, #68
 3706 00e0 9A5A     		ldrh	r2, [r3, r2]
 3707 00e2 D105     		lsl	r1, r2, #23
 3708 00e4 04D5     		bpl	.L194
 396:Drivers/STM32F0xx_HAL_Driver/Src/stm32f0xx_hal_pcd.c ****     __HAL_PCD_CLEAR_FLAG(hpcd, USB_ISTR_ESOF); 
 3709              		.loc 1 396 0
 3710 00e6 4422     		mov	r2, #68
 3711 00e8 985A     		ldrh	r0, [r3, r2]
 3712 00ea 0949     		ldr	r1, .L203+28
 3713 00ec 0140     		and	r1, r0
 3714 00ee 9952     		strh	r1, [r3, r2]
 3715              	.L194:
 398:Drivers/STM32F0xx_HAL_Driver/Src/stm32f0xx_hal_pcd.c **** }
 3716              		.loc 1 398 0
 3717              		@ sp needed
 3718              	.LVL380:
 3719 00f0 38BD     		pop	{r3, r4, r5, pc}
 3720              	.L204:
 3721 00f2 C046     		.align	2
 3722              	.L203:
 3723 00f4 FFFBFFFF 		.word	-1025
 3724 00f8 FFBFFFFF 		.word	-16385
 3725 00fc FFDFFFFF 		.word	-8193
 3726 0100 00BDFFFF 		.word	-17152
 3727 0104 FFEFFFFF 		.word	-4097
ARM GAS  /tmp/ccBeNIig.s 			page 92


 3728 0108 FFF7FFFF 		.word	-2049
 3729 010c FFFDFFFF 		.word	-513
 3730 0110 FFFEFFFF 		.word	-257
 3731              		.cfi_endproc
 3732              	.LFE40:
 3734              		.text
 3735              	.Letext0:
 3736              		.file 2 "/home/niklas/Downloads/gcc-arm-none-eabi-4_8-2014q3/arm-none-eabi/include/machine/_defaul
 3737              		.file 3 "/home/niklas/Downloads/gcc-arm-none-eabi-4_8-2014q3/arm-none-eabi/include/stdint.h"
 3738              		.file 4 "Drivers/CMSIS/Device/ST/STM32F0xx/Include/stm32f072xb.h"
 3739              		.file 5 "Drivers/STM32F0xx_HAL_Driver/Inc/stm32f0xx_hal_def.h"
 3740              		.file 6 "Drivers/STM32F0xx_HAL_Driver/Inc/stm32f0xx_hal_pcd.h"
ARM GAS  /tmp/ccBeNIig.s 			page 93


DEFINED SYMBOLS
                            *ABS*:00000000 stm32f0xx_hal_pcd.c
     /tmp/ccBeNIig.s:18     .text.HAL_PCD_MspInit:00000000 $t
     /tmp/ccBeNIig.s:23     .text.HAL_PCD_MspInit:00000000 HAL_PCD_MspInit
     /tmp/ccBeNIig.s:36     .text.HAL_PCD_Init:00000000 $t
     /tmp/ccBeNIig.s:41     .text.HAL_PCD_Init:00000000 HAL_PCD_Init
     /tmp/ccBeNIig.s:199    .text.HAL_PCD_Init:000000b4 $d
     /tmp/ccBeNIig.s:204    .text.HAL_PCD_MspDeInit:00000000 $t
     /tmp/ccBeNIig.s:209    .text.HAL_PCD_MspDeInit:00000000 HAL_PCD_MspDeInit
     /tmp/ccBeNIig.s:221    .text.HAL_PCD_Start:00000000 $t
     /tmp/ccBeNIig.s:226    .text.HAL_PCD_Start:00000000 HAL_PCD_Start
     /tmp/ccBeNIig.s:248    .text.HAL_PCD_Stop:00000000 $t
     /tmp/ccBeNIig.s:253    .text.HAL_PCD_Stop:00000000 HAL_PCD_Stop
     /tmp/ccBeNIig.s:305    .text.HAL_PCD_DeInit:00000000 $t
     /tmp/ccBeNIig.s:310    .text.HAL_PCD_DeInit:00000000 HAL_PCD_DeInit
     /tmp/ccBeNIig.s:357    .text.HAL_PCD_DataOutStageCallback:00000000 $t
     /tmp/ccBeNIig.s:362    .text.HAL_PCD_DataOutStageCallback:00000000 HAL_PCD_DataOutStageCallback
     /tmp/ccBeNIig.s:374    .text.HAL_PCD_DataInStageCallback:00000000 $t
     /tmp/ccBeNIig.s:379    .text.HAL_PCD_DataInStageCallback:00000000 HAL_PCD_DataInStageCallback
     /tmp/ccBeNIig.s:391    .text.HAL_PCD_SetupStageCallback:00000000 $t
     /tmp/ccBeNIig.s:396    .text.HAL_PCD_SetupStageCallback:00000000 HAL_PCD_SetupStageCallback
     /tmp/ccBeNIig.s:408    .text.HAL_PCD_SOFCallback:00000000 $t
     /tmp/ccBeNIig.s:413    .text.HAL_PCD_SOFCallback:00000000 HAL_PCD_SOFCallback
     /tmp/ccBeNIig.s:425    .text.HAL_PCD_ResetCallback:00000000 $t
     /tmp/ccBeNIig.s:430    .text.HAL_PCD_ResetCallback:00000000 HAL_PCD_ResetCallback
     /tmp/ccBeNIig.s:442    .text.HAL_PCD_SuspendCallback:00000000 $t
     /tmp/ccBeNIig.s:447    .text.HAL_PCD_SuspendCallback:00000000 HAL_PCD_SuspendCallback
     /tmp/ccBeNIig.s:459    .text.HAL_PCD_ResumeCallback:00000000 $t
     /tmp/ccBeNIig.s:464    .text.HAL_PCD_ResumeCallback:00000000 HAL_PCD_ResumeCallback
     /tmp/ccBeNIig.s:476    .text.HAL_PCD_ISOOUTIncompleteCallback:00000000 $t
     /tmp/ccBeNIig.s:481    .text.HAL_PCD_ISOOUTIncompleteCallback:00000000 HAL_PCD_ISOOUTIncompleteCallback
     /tmp/ccBeNIig.s:493    .text.HAL_PCD_ISOINIncompleteCallback:00000000 $t
     /tmp/ccBeNIig.s:498    .text.HAL_PCD_ISOINIncompleteCallback:00000000 HAL_PCD_ISOINIncompleteCallback
     /tmp/ccBeNIig.s:510    .text.HAL_PCD_ConnectCallback:00000000 $t
     /tmp/ccBeNIig.s:515    .text.HAL_PCD_ConnectCallback:00000000 HAL_PCD_ConnectCallback
     /tmp/ccBeNIig.s:527    .text.HAL_PCD_DisconnectCallback:00000000 $t
     /tmp/ccBeNIig.s:532    .text.HAL_PCD_DisconnectCallback:00000000 HAL_PCD_DisconnectCallback
     /tmp/ccBeNIig.s:544    .text.HAL_PCD_DevConnect:00000000 $t
     /tmp/ccBeNIig.s:549    .text.HAL_PCD_DevConnect:00000000 HAL_PCD_DevConnect
     /tmp/ccBeNIig.s:599    .text.HAL_PCD_DevDisconnect:00000000 $t
     /tmp/ccBeNIig.s:604    .text.HAL_PCD_DevDisconnect:00000000 HAL_PCD_DevDisconnect
     /tmp/ccBeNIig.s:652    .text.HAL_PCD_SetAddress:00000000 $t
     /tmp/ccBeNIig.s:657    .text.HAL_PCD_SetAddress:00000000 HAL_PCD_SetAddress
     /tmp/ccBeNIig.s:712    .text.HAL_PCD_EP_Open:00000000 $t
     /tmp/ccBeNIig.s:717    .text.HAL_PCD_EP_Open:00000000 HAL_PCD_EP_Open
     /tmp/ccBeNIig.s:1243   .text.HAL_PCD_EP_Open:000002ec $d
     /tmp/ccBeNIig.s:1259   .text.HAL_PCD_EP_Close:00000000 $t
     /tmp/ccBeNIig.s:1264   .text.HAL_PCD_EP_Close:00000000 HAL_PCD_EP_Close
     /tmp/ccBeNIig.s:1574   .text.HAL_PCD_EP_Close:0000019c $d
     /tmp/ccBeNIig.s:1585   .text.HAL_PCD_EP_Receive:00000000 $t
     /tmp/ccBeNIig.s:1590   .text.HAL_PCD_EP_Receive:00000000 HAL_PCD_EP_Receive
     /tmp/ccBeNIig.s:1907   .text.HAL_PCD_EP_Receive:00000174 $d
     /tmp/ccBeNIig.s:1915   .text.HAL_PCD_EP_GetRxCount:00000000 $t
     /tmp/ccBeNIig.s:1920   .text.HAL_PCD_EP_GetRxCount:00000000 HAL_PCD_EP_GetRxCount
     /tmp/ccBeNIig.s:1944   .text.HAL_PCD_EP_SetStall:00000000 $t
     /tmp/ccBeNIig.s:1949   .text.HAL_PCD_EP_SetStall:00000000 HAL_PCD_EP_SetStall
     /tmp/ccBeNIig.s:2100   .text.HAL_PCD_EP_SetStall:000000a8 $d
ARM GAS  /tmp/ccBeNIig.s 			page 94


     /tmp/ccBeNIig.s:2109   .text.HAL_PCD_EP_ClrStall:00000000 $t
     /tmp/ccBeNIig.s:2114   .text.HAL_PCD_EP_ClrStall:00000000 HAL_PCD_EP_ClrStall
     /tmp/ccBeNIig.s:2273   .text.HAL_PCD_EP_ClrStall:000000c0 $d
     /tmp/ccBeNIig.s:2283   .text.HAL_PCD_EP_Flush:00000000 $t
     /tmp/ccBeNIig.s:2288   .text.HAL_PCD_EP_Flush:00000000 HAL_PCD_EP_Flush
     /tmp/ccBeNIig.s:2302   .text.HAL_PCD_ActivateRemoteWakeup:00000000 $t
     /tmp/ccBeNIig.s:2307   .text.HAL_PCD_ActivateRemoteWakeup:00000000 HAL_PCD_ActivateRemoteWakeup
     /tmp/ccBeNIig.s:2344   .text.HAL_PCD_DeActivateRemoteWakeup:00000000 $t
     /tmp/ccBeNIig.s:2349   .text.HAL_PCD_DeActivateRemoteWakeup:00000000 HAL_PCD_DeActivateRemoteWakeup
     /tmp/ccBeNIig.s:2386   .text.HAL_PCD_GetState:00000000 $t
     /tmp/ccBeNIig.s:2391   .text.HAL_PCD_GetState:00000000 HAL_PCD_GetState
     /tmp/ccBeNIig.s:2409   .text.PCD_WritePMA:00000000 $t
     /tmp/ccBeNIig.s:2414   .text.PCD_WritePMA:00000000 PCD_WritePMA
     /tmp/ccBeNIig.s:2471   .text.HAL_PCD_EP_Transmit:00000000 $t
     /tmp/ccBeNIig.s:2476   .text.HAL_PCD_EP_Transmit:00000000 HAL_PCD_EP_Transmit
     /tmp/ccBeNIig.s:2807   .text.HAL_PCD_EP_Transmit:00000198 $d
     /tmp/ccBeNIig.s:2818   .text.PCD_ReadPMA:00000000 $t
     /tmp/ccBeNIig.s:2823   .text.PCD_ReadPMA:00000000 PCD_ReadPMA
     /tmp/ccBeNIig.s:2890   .text.PCD_EP_ISR_Handler:00000000 $t
     /tmp/ccBeNIig.s:2894   .text.PCD_EP_ISR_Handler:00000000 PCD_EP_ISR_Handler
     /tmp/ccBeNIig.s:3436   .text.PCD_EP_ISR_Handler:00000300 $d
     /tmp/ccBeNIig.s:3446   .text.PCD_EP_ISR_Handler:00000320 $t
     /tmp/ccBeNIig.s:3535   .text.PCD_EP_ISR_Handler:000003ac $d
     /tmp/ccBeNIig.s:3543   .text.HAL_PCD_IRQHandler:00000000 $t
     /tmp/ccBeNIig.s:3548   .text.HAL_PCD_IRQHandler:00000000 HAL_PCD_IRQHandler
     /tmp/ccBeNIig.s:3723   .text.HAL_PCD_IRQHandler:000000f4 $d
                     .debug_frame:00000010 $d

NO UNDEFINED SYMBOLS
