ARM GAS  /tmp/ccfSjLQh.s 			page 1


   1              		.cpu cortex-m0
   2              		.fpu softvfp
   3              		.eabi_attribute 20, 1
   4              		.eabi_attribute 21, 1
   5              		.eabi_attribute 23, 3
   6              		.eabi_attribute 24, 1
   7              		.eabi_attribute 25, 1
   8              		.eabi_attribute 26, 1
   9              		.eabi_attribute 30, 1
  10              		.eabi_attribute 34, 0
  11              		.eabi_attribute 18, 4
  12              		.code	16
  13              		.file	"usbd_midi.c"
  14              		.text
  15              	.Ltext0:
  16              		.cfi_sections	.debug_frame
  17              		.section	.text.USBD_MIDI_DataIn,"ax",%progbits
  18              		.align	2
  19              		.code	16
  20              		.thumb_func
  22              	USBD_MIDI_DataIn:
  23              	.LFB36:
  24              		.file 1 "Middlewares/USBMIDI/Src/usbd_midi.c"
   1:Middlewares/USBMIDI/Src/usbd_midi.c **** /**
   2:Middlewares/USBMIDI/Src/usbd_midi.c ****   ******************************************************************************
   3:Middlewares/USBMIDI/Src/usbd_midi.c ****   * @file    usbd_midi.c
   4:Middlewares/USBMIDI/Src/usbd_midi.c ****   ******************************************************************************
   5:Middlewares/USBMIDI/Src/usbd_midi.c **** 
   6:Middlewares/USBMIDI/Src/usbd_midi.c ****     (CC at)2016 by D.F.Mac. @TripArts Music
   7:Middlewares/USBMIDI/Src/usbd_midi.c **** 
   8:Middlewares/USBMIDI/Src/usbd_midi.c **** */ 
   9:Middlewares/USBMIDI/Src/usbd_midi.c **** 
  10:Middlewares/USBMIDI/Src/usbd_midi.c **** /* Includes ------------------------------------------------------------------*/
  11:Middlewares/USBMIDI/Src/usbd_midi.c **** #include "usbd_midi.h"
  12:Middlewares/USBMIDI/Src/usbd_midi.c **** #include "usbd_desc.h"
  13:Middlewares/USBMIDI/Src/usbd_midi.c **** #include "stm32f0xx_hal_conf.h"
  14:Middlewares/USBMIDI/Src/usbd_midi.c **** #include "usbd_ctlreq.h"
  15:Middlewares/USBMIDI/Src/usbd_midi.c **** #include "stm32f0xx_hal.h"
  16:Middlewares/USBMIDI/Src/usbd_midi.c **** 
  17:Middlewares/USBMIDI/Src/usbd_midi.c **** static uint8_t  USBD_MIDI_Init (USBD_HandleTypeDef *pdev, uint8_t cfgidx);
  18:Middlewares/USBMIDI/Src/usbd_midi.c **** static uint8_t  USBD_MIDI_DeInit (USBD_HandleTypeDef *pdev, uint8_t cfgidx);
  19:Middlewares/USBMIDI/Src/usbd_midi.c **** static uint8_t  USBD_MIDI_DataIn (USBD_HandleTypeDef *pdev, uint8_t epnum);
  20:Middlewares/USBMIDI/Src/usbd_midi.c **** static uint8_t  USBD_MIDI_DataOut (USBD_HandleTypeDef *pdev, uint8_t epnum);
  21:Middlewares/USBMIDI/Src/usbd_midi.c **** 
  22:Middlewares/USBMIDI/Src/usbd_midi.c **** static uint8_t  *USBD_MIDI_GetCfgDesc (uint16_t *length);
  23:Middlewares/USBMIDI/Src/usbd_midi.c **** //uint8_t  *USBD_MIDI_GetDeviceQualifierDescriptor (uint16_t *length);
  24:Middlewares/USBMIDI/Src/usbd_midi.c **** USBD_HandleTypeDef *pInstance = NULL; 
  25:Middlewares/USBMIDI/Src/usbd_midi.c **** 
  26:Middlewares/USBMIDI/Src/usbd_midi.c **** uint32_t APP_Rx_ptr_in  = 0;
  27:Middlewares/USBMIDI/Src/usbd_midi.c **** uint32_t APP_Rx_ptr_out = 0;
  28:Middlewares/USBMIDI/Src/usbd_midi.c **** uint32_t APP_Rx_length  = 0;
  29:Middlewares/USBMIDI/Src/usbd_midi.c **** uint8_t  USB_Tx_State = 0;
  30:Middlewares/USBMIDI/Src/usbd_midi.c **** 
  31:Middlewares/USBMIDI/Src/usbd_midi.c **** __ALIGN_BEGIN uint8_t USB_Rx_Buffer[MIDI_DATA_OUT_PACKET_SIZE] __ALIGN_END ;
  32:Middlewares/USBMIDI/Src/usbd_midi.c **** __ALIGN_BEGIN uint8_t APP_Rx_Buffer[APP_RX_DATA_SIZE] __ALIGN_END ;
  33:Middlewares/USBMIDI/Src/usbd_midi.c **** 
  34:Middlewares/USBMIDI/Src/usbd_midi.c **** /* USB Standard Device Descriptor */
ARM GAS  /tmp/ccfSjLQh.s 			page 2


  35:Middlewares/USBMIDI/Src/usbd_midi.c **** /*
  36:Middlewares/USBMIDI/Src/usbd_midi.c **** __ALIGN_BEGIN static uint8_t USBD_MIDI_DeviceQualifierDesc[USB_LEN_DEV_QUALIFIER_DESC] __ALIGN_END 
  37:Middlewares/USBMIDI/Src/usbd_midi.c **** {
  38:Middlewares/USBMIDI/Src/usbd_midi.c ****   USB_LEN_DEV_QUALIFIER_DESC,
  39:Middlewares/USBMIDI/Src/usbd_midi.c ****   USB_DESC_TYPE_DEVICE_QUALIFIER,
  40:Middlewares/USBMIDI/Src/usbd_midi.c ****   0x00,
  41:Middlewares/USBMIDI/Src/usbd_midi.c ****   0x02,
  42:Middlewares/USBMIDI/Src/usbd_midi.c ****   0x00,
  43:Middlewares/USBMIDI/Src/usbd_midi.c ****   0x00,
  44:Middlewares/USBMIDI/Src/usbd_midi.c ****   0x00,
  45:Middlewares/USBMIDI/Src/usbd_midi.c ****   0x40,
  46:Middlewares/USBMIDI/Src/usbd_midi.c ****   0x01,
  47:Middlewares/USBMIDI/Src/usbd_midi.c ****   0x00,
  48:Middlewares/USBMIDI/Src/usbd_midi.c **** };
  49:Middlewares/USBMIDI/Src/usbd_midi.c **** */
  50:Middlewares/USBMIDI/Src/usbd_midi.c **** 
  51:Middlewares/USBMIDI/Src/usbd_midi.c **** /* USB MIDI interface class callbacks structure */
  52:Middlewares/USBMIDI/Src/usbd_midi.c **** USBD_ClassTypeDef  USBD_MIDI = 
  53:Middlewares/USBMIDI/Src/usbd_midi.c **** {
  54:Middlewares/USBMIDI/Src/usbd_midi.c ****   USBD_MIDI_Init,
  55:Middlewares/USBMIDI/Src/usbd_midi.c ****   USBD_MIDI_DeInit,
  56:Middlewares/USBMIDI/Src/usbd_midi.c ****   NULL,
  57:Middlewares/USBMIDI/Src/usbd_midi.c ****   NULL,
  58:Middlewares/USBMIDI/Src/usbd_midi.c ****   NULL,
  59:Middlewares/USBMIDI/Src/usbd_midi.c ****   USBD_MIDI_DataIn,
  60:Middlewares/USBMIDI/Src/usbd_midi.c ****   USBD_MIDI_DataOut,
  61:Middlewares/USBMIDI/Src/usbd_midi.c ****   NULL,
  62:Middlewares/USBMIDI/Src/usbd_midi.c ****   NULL,
  63:Middlewares/USBMIDI/Src/usbd_midi.c ****   NULL,
  64:Middlewares/USBMIDI/Src/usbd_midi.c ****   NULL,// HS
  65:Middlewares/USBMIDI/Src/usbd_midi.c ****   USBD_MIDI_GetCfgDesc,// FS
  66:Middlewares/USBMIDI/Src/usbd_midi.c ****   NULL,// OTHER SPEED
  67:Middlewares/USBMIDI/Src/usbd_midi.c ****   NULL,// DEVICE_QUALIFIER
  68:Middlewares/USBMIDI/Src/usbd_midi.c **** };
  69:Middlewares/USBMIDI/Src/usbd_midi.c **** 
  70:Middlewares/USBMIDI/Src/usbd_midi.c **** /* USB MIDI device Configuration Descriptor */
  71:Middlewares/USBMIDI/Src/usbd_midi.c **** __ALIGN_BEGIN uint8_t USBD_MIDI_CfgDesc[USB_MIDI_CONFIG_DESC_SIZ] __ALIGN_END =
  72:Middlewares/USBMIDI/Src/usbd_midi.c **** {
  73:Middlewares/USBMIDI/Src/usbd_midi.c ****   // configuration descriptor
  74:Middlewares/USBMIDI/Src/usbd_midi.c ****   0x09, 0x02, 0x65 + 6+6+9+9+1+1, 0x00, 0x02, 0x01, 0x00, 0x80, 0x0A,
  75:Middlewares/USBMIDI/Src/usbd_midi.c **** 
  76:Middlewares/USBMIDI/Src/usbd_midi.c ****   // The Audio Interface Collection
  77:Middlewares/USBMIDI/Src/usbd_midi.c ****   0x09, 0x04, 0x00, 0x00, 0x00, 0x01, 0x01, 0x00, 0x00, // Standard AC Interface Descriptor
  78:Middlewares/USBMIDI/Src/usbd_midi.c ****   0x09, 0x24, 0x01, 0x00, 0x01, 0x09, 0x00, 0x01, 0x01, // Class-specific AC Interface Descriptor
  79:Middlewares/USBMIDI/Src/usbd_midi.c ****   0x09, 0x04, 0x01, 0x00, 0x02, 0x01, 0x03, 0x00, 0x00, // MIDIStreaming Interface Descriptors
  80:Middlewares/USBMIDI/Src/usbd_midi.c ****   0x07, 0x24, 0x01, 0x00, 0x01, 0x25 + 6+6+9+9, 0x00,   // Class-Specific MS Interface Header Descr
  81:Middlewares/USBMIDI/Src/usbd_midi.c **** 
  82:Middlewares/USBMIDI/Src/usbd_midi.c ****   // MIDI IN JACKS
  83:Middlewares/USBMIDI/Src/usbd_midi.c ****   0x06, 0x24, 0x02, 0x01, 0x01, 0x00,//MIDI-IN 1 (embedded)
  84:Middlewares/USBMIDI/Src/usbd_midi.c ****   0x06, 0x24, 0x02, 0x02, 0x02, 0x00,//MIDI-IN 1 (external)
  85:Middlewares/USBMIDI/Src/usbd_midi.c **** 
  86:Middlewares/USBMIDI/Src/usbd_midi.c ****   0x06, 0x24, 0x02, 0x01, 0x11, 0x00,//MIDI-IN 2 (embedded)
  87:Middlewares/USBMIDI/Src/usbd_midi.c ****   0x06, 0x24, 0x02, 0x02, 0x12, 0x00,//MIDI-IN 2 (external)
  88:Middlewares/USBMIDI/Src/usbd_midi.c **** 
  89:Middlewares/USBMIDI/Src/usbd_midi.c ****   // MIDI OUT JACKS
  90:Middlewares/USBMIDI/Src/usbd_midi.c ****   0x09, 0x24, 0x03, 0x01, 0x03, 0x01, 0x02, 0x01, 0x00,//MIDI-OUT 1 (embedded)
  91:Middlewares/USBMIDI/Src/usbd_midi.c ****   0x09, 0x24, 0x03, 0x02, 0x04, 0x01, 0x01, 0x01, 0x00,//MIDI-OUT 1 (external)
ARM GAS  /tmp/ccfSjLQh.s 			page 3


  92:Middlewares/USBMIDI/Src/usbd_midi.c **** 
  93:Middlewares/USBMIDI/Src/usbd_midi.c ****   0x09, 0x24, 0x03, 0x01, 0x13, 0x01, 0x12, 0x01, 0x00,//MIDI-OUT 2 (embedded)
  94:Middlewares/USBMIDI/Src/usbd_midi.c ****   0x09, 0x24, 0x03, 0x02, 0x14, 0x01, 0x11, 0x01, 0x00,//MIDI-OUT 2 (external)
  95:Middlewares/USBMIDI/Src/usbd_midi.c **** 
  96:Middlewares/USBMIDI/Src/usbd_midi.c ****   // OUT endpoint descriptor
  97:Middlewares/USBMIDI/Src/usbd_midi.c ****   0x09, 0x05, MIDI_OUT_EP, 0x02, 0x40, 0x00, 0x00, 0x00, 0x00,
  98:Middlewares/USBMIDI/Src/usbd_midi.c ****   0x06, 0x25, 0x01, 0x02, 0x01, 0x11,
  99:Middlewares/USBMIDI/Src/usbd_midi.c **** 
 100:Middlewares/USBMIDI/Src/usbd_midi.c ****   // IN endpoint descriptor
 101:Middlewares/USBMIDI/Src/usbd_midi.c ****   0x09, 0x05, MIDI_IN_EP, 0x02, 0x40, 0x00, 0x00, 0x00, 0x00,
 102:Middlewares/USBMIDI/Src/usbd_midi.c ****   0x06, 0x25, 0x01, 0x02, 0x03, 0x13,
 103:Middlewares/USBMIDI/Src/usbd_midi.c **** };
 104:Middlewares/USBMIDI/Src/usbd_midi.c **** 
 105:Middlewares/USBMIDI/Src/usbd_midi.c **** static uint8_t USBD_MIDI_Init(USBD_HandleTypeDef *pdev, uint8_t cfgidx){
 106:Middlewares/USBMIDI/Src/usbd_midi.c ****   pInstance = pdev;
 107:Middlewares/USBMIDI/Src/usbd_midi.c ****   USBD_LL_OpenEP(pdev,MIDI_IN_EP,USBD_EP_TYPE_BULK,MIDI_DATA_IN_PACKET_SIZE);
 108:Middlewares/USBMIDI/Src/usbd_midi.c ****   USBD_LL_OpenEP(pdev,MIDI_OUT_EP,USBD_EP_TYPE_BULK,MIDI_DATA_OUT_PACKET_SIZE);
 109:Middlewares/USBMIDI/Src/usbd_midi.c ****   USBD_LL_PrepareReceive(pdev,MIDI_OUT_EP,(uint8_t*)(USB_Rx_Buffer),MIDI_DATA_OUT_PACKET_SIZE);
 110:Middlewares/USBMIDI/Src/usbd_midi.c ****   return 0;
 111:Middlewares/USBMIDI/Src/usbd_midi.c **** }
 112:Middlewares/USBMIDI/Src/usbd_midi.c **** 
 113:Middlewares/USBMIDI/Src/usbd_midi.c **** static uint8_t USBD_MIDI_DeInit (USBD_HandleTypeDef *pdev, uint8_t cfgidx){
 114:Middlewares/USBMIDI/Src/usbd_midi.c ****   pInstance = NULL;
 115:Middlewares/USBMIDI/Src/usbd_midi.c ****   USBD_LL_CloseEP(pdev,MIDI_IN_EP);
 116:Middlewares/USBMIDI/Src/usbd_midi.c ****   USBD_LL_CloseEP(pdev,MIDI_OUT_EP);
 117:Middlewares/USBMIDI/Src/usbd_midi.c ****   return 0;
 118:Middlewares/USBMIDI/Src/usbd_midi.c **** }
 119:Middlewares/USBMIDI/Src/usbd_midi.c **** 
 120:Middlewares/USBMIDI/Src/usbd_midi.c **** static uint8_t USBD_MIDI_DataIn (USBD_HandleTypeDef *pdev, uint8_t epnum){
  25              		.loc 1 120 0
  26              		.cfi_startproc
  27              	.LVL0:
 121:Middlewares/USBMIDI/Src/usbd_midi.c **** 
 122:Middlewares/USBMIDI/Src/usbd_midi.c ****   if (USB_Tx_State == 1){
  28              		.loc 1 122 0
  29 0000 044B     		ldr	r3, .L3
  30 0002 1B78     		ldrb	r3, [r3]
  31 0004 012B     		cmp	r3, #1
  32 0006 02D1     		bne	.L2
 123:Middlewares/USBMIDI/Src/usbd_midi.c ****     USB_Tx_State = 0;
  33              		.loc 1 123 0
  34 0008 0022     		mov	r2, #0
  35 000a 024B     		ldr	r3, .L3
  36 000c 1A70     		strb	r2, [r3]
  37              	.L2:
 124:Middlewares/USBMIDI/Src/usbd_midi.c ****   }
 125:Middlewares/USBMIDI/Src/usbd_midi.c ****   return USBD_OK;
 126:Middlewares/USBMIDI/Src/usbd_midi.c **** }
  38              		.loc 1 126 0
  39 000e 0020     		mov	r0, #0
  40              	.LVL1:
  41              		@ sp needed
  42 0010 7047     		bx	lr
  43              	.L4:
  44 0012 C046     		.align	2
  45              	.L3:
  46 0014 00000000 		.word	.LANCHOR0
ARM GAS  /tmp/ccfSjLQh.s 			page 4


  47              		.cfi_endproc
  48              	.LFE36:
  50              		.section	.text.USBD_MIDI_GetCfgDesc,"ax",%progbits
  51              		.align	2
  52              		.code	16
  53              		.thumb_func
  55              	USBD_MIDI_GetCfgDesc:
  56              	.LFB39:
 127:Middlewares/USBMIDI/Src/usbd_midi.c **** 
 128:Middlewares/USBMIDI/Src/usbd_midi.c **** static uint8_t  USBD_MIDI_DataOut (USBD_HandleTypeDef *pdev, uint8_t epnum)
 129:Middlewares/USBMIDI/Src/usbd_midi.c **** {      
 130:Middlewares/USBMIDI/Src/usbd_midi.c ****   uint16_t USB_Rx_Cnt;
 131:Middlewares/USBMIDI/Src/usbd_midi.c **** 
 132:Middlewares/USBMIDI/Src/usbd_midi.c ****   USBD_MIDI_ItfTypeDef *pmidi;
 133:Middlewares/USBMIDI/Src/usbd_midi.c ****   pmidi = (USBD_MIDI_ItfTypeDef *)(pdev->pUserData);
 134:Middlewares/USBMIDI/Src/usbd_midi.c **** 
 135:Middlewares/USBMIDI/Src/usbd_midi.c ****   USB_Rx_Cnt = ((PCD_HandleTypeDef*)pdev->pData)->OUT_ep[epnum].xfer_count;
 136:Middlewares/USBMIDI/Src/usbd_midi.c **** 
 137:Middlewares/USBMIDI/Src/usbd_midi.c ****   pmidi->pIf_MidiRx((uint8_t *)&USB_Rx_Buffer, USB_Rx_Cnt);
 138:Middlewares/USBMIDI/Src/usbd_midi.c **** 
 139:Middlewares/USBMIDI/Src/usbd_midi.c ****   USBD_LL_PrepareReceive(pdev,MIDI_OUT_EP,(uint8_t*)(USB_Rx_Buffer),MIDI_DATA_OUT_PACKET_SIZE);
 140:Middlewares/USBMIDI/Src/usbd_midi.c ****   return USBD_OK;
 141:Middlewares/USBMIDI/Src/usbd_midi.c **** }
 142:Middlewares/USBMIDI/Src/usbd_midi.c **** 
 143:Middlewares/USBMIDI/Src/usbd_midi.c **** void USBD_MIDI_SendPacket (){
 144:Middlewares/USBMIDI/Src/usbd_midi.c ****   uint16_t USB_Tx_ptr;
 145:Middlewares/USBMIDI/Src/usbd_midi.c ****   uint16_t USB_Tx_length;
 146:Middlewares/USBMIDI/Src/usbd_midi.c **** 
 147:Middlewares/USBMIDI/Src/usbd_midi.c ****   if(USB_Tx_State != 1){
 148:Middlewares/USBMIDI/Src/usbd_midi.c ****     if (APP_Rx_ptr_out == APP_RX_DATA_SIZE){
 149:Middlewares/USBMIDI/Src/usbd_midi.c ****       APP_Rx_ptr_out = 0;
 150:Middlewares/USBMIDI/Src/usbd_midi.c ****     }
 151:Middlewares/USBMIDI/Src/usbd_midi.c **** 
 152:Middlewares/USBMIDI/Src/usbd_midi.c ****     if(APP_Rx_ptr_out == APP_Rx_ptr_in){
 153:Middlewares/USBMIDI/Src/usbd_midi.c ****       USB_Tx_State = 0;
 154:Middlewares/USBMIDI/Src/usbd_midi.c ****       return;
 155:Middlewares/USBMIDI/Src/usbd_midi.c ****     }
 156:Middlewares/USBMIDI/Src/usbd_midi.c **** 
 157:Middlewares/USBMIDI/Src/usbd_midi.c ****     if(APP_Rx_ptr_out > APP_Rx_ptr_in){
 158:Middlewares/USBMIDI/Src/usbd_midi.c ****       APP_Rx_length = APP_RX_DATA_SIZE - APP_Rx_ptr_out;
 159:Middlewares/USBMIDI/Src/usbd_midi.c ****     }else{
 160:Middlewares/USBMIDI/Src/usbd_midi.c ****       APP_Rx_length = APP_Rx_ptr_in - APP_Rx_ptr_out;
 161:Middlewares/USBMIDI/Src/usbd_midi.c ****     }
 162:Middlewares/USBMIDI/Src/usbd_midi.c **** 
 163:Middlewares/USBMIDI/Src/usbd_midi.c ****     if (APP_Rx_length > MIDI_DATA_IN_PACKET_SIZE){
 164:Middlewares/USBMIDI/Src/usbd_midi.c ****       USB_Tx_ptr = APP_Rx_ptr_out;
 165:Middlewares/USBMIDI/Src/usbd_midi.c ****       USB_Tx_length = MIDI_DATA_IN_PACKET_SIZE;
 166:Middlewares/USBMIDI/Src/usbd_midi.c ****       APP_Rx_ptr_out += MIDI_DATA_IN_PACKET_SIZE;
 167:Middlewares/USBMIDI/Src/usbd_midi.c ****       APP_Rx_length -= MIDI_DATA_IN_PACKET_SIZE;
 168:Middlewares/USBMIDI/Src/usbd_midi.c ****     }else{
 169:Middlewares/USBMIDI/Src/usbd_midi.c ****       USB_Tx_ptr = APP_Rx_ptr_out;
 170:Middlewares/USBMIDI/Src/usbd_midi.c ****       USB_Tx_length = APP_Rx_length;
 171:Middlewares/USBMIDI/Src/usbd_midi.c ****       APP_Rx_ptr_out += APP_Rx_length;
 172:Middlewares/USBMIDI/Src/usbd_midi.c ****       APP_Rx_length = 0;
 173:Middlewares/USBMIDI/Src/usbd_midi.c ****     }
 174:Middlewares/USBMIDI/Src/usbd_midi.c ****     USB_Tx_State = 1;
 175:Middlewares/USBMIDI/Src/usbd_midi.c ****     USBD_LL_Transmit (pInstance, MIDI_IN_EP,(uint8_t*)&APP_Rx_Buffer[USB_Tx_ptr],USB_Tx_length);
ARM GAS  /tmp/ccfSjLQh.s 			page 5


 176:Middlewares/USBMIDI/Src/usbd_midi.c ****   }
 177:Middlewares/USBMIDI/Src/usbd_midi.c **** }
 178:Middlewares/USBMIDI/Src/usbd_midi.c **** 
 179:Middlewares/USBMIDI/Src/usbd_midi.c **** static uint8_t *USBD_MIDI_GetCfgDesc (uint16_t *length){
  57              		.loc 1 179 0
  58              		.cfi_startproc
  59              	.LVL2:
 180:Middlewares/USBMIDI/Src/usbd_midi.c ****   *length = sizeof (USBD_MIDI_CfgDesc);
  60              		.loc 1 180 0
  61 0000 8523     		mov	r3, #133
  62 0002 0380     		strh	r3, [r0]
 181:Middlewares/USBMIDI/Src/usbd_midi.c ****   return USBD_MIDI_CfgDesc;
 182:Middlewares/USBMIDI/Src/usbd_midi.c **** }
  63              		.loc 1 182 0
  64 0004 0048     		ldr	r0, .L6
  65              	.LVL3:
  66              		@ sp needed
  67 0006 7047     		bx	lr
  68              	.L7:
  69              		.align	2
  70              	.L6:
  71 0008 00000000 		.word	.LANCHOR1
  72              		.cfi_endproc
  73              	.LFE39:
  75              		.section	.text.USBD_MIDI_DataOut,"ax",%progbits
  76              		.align	2
  77              		.code	16
  78              		.thumb_func
  80              	USBD_MIDI_DataOut:
  81              	.LFB37:
 129:Middlewares/USBMIDI/Src/usbd_midi.c **** {      
  82              		.loc 1 129 0
  83              		.cfi_startproc
  84              	.LVL4:
  85 0000 38B5     		push	{r3, r4, r5, lr}
  86              	.LCFI0:
  87              		.cfi_def_cfa_offset 16
  88              		.cfi_offset 3, -16
  89              		.cfi_offset 4, -12
  90              		.cfi_offset 5, -8
  91              		.cfi_offset 14, -4
  92 0002 041C     		mov	r4, r0
 133:Middlewares/USBMIDI/Src/usbd_midi.c ****   pmidi = (USBD_MIDI_ItfTypeDef *)(pdev->pUserData);
  93              		.loc 1 133 0
  94 0004 8723     		mov	r3, #135
  95 0006 9B00     		lsl	r3, r3, #2
  96 0008 C358     		ldr	r3, [r0, r3]
  97              	.LVL5:
 135:Middlewares/USBMIDI/Src/usbd_midi.c ****   USB_Rx_Cnt = ((PCD_HandleTypeDef*)pdev->pData)->OUT_ep[epnum].xfer_count;
  98              		.loc 1 135 0
  99 000a 8822     		mov	r2, #136
 100 000c 9200     		lsl	r2, r2, #2
 101 000e 8258     		ldr	r2, [r0, r2]
 102 0010 C800     		lsl	r0, r1, #3
 103              	.LVL6:
 104 0012 411A     		sub	r1, r0, r1
 105              	.LVL7:
ARM GAS  /tmp/ccfSjLQh.s 			page 6


 106 0014 8900     		lsl	r1, r1, #2
 107 0016 5118     		add	r1, r2, r1
 108 0018 2131     		add	r1, r1, #33
 109 001a FF31     		add	r1, r1, #255
 110 001c 0988     		ldrh	r1, [r1]
 111              	.LVL8:
 137:Middlewares/USBMIDI/Src/usbd_midi.c ****   pmidi->pIf_MidiRx((uint8_t *)&USB_Rx_Buffer, USB_Rx_Cnt);
 112              		.loc 1 137 0
 113 001e 1B68     		ldr	r3, [r3]
 114              	.LVL9:
 115 0020 054D     		ldr	r5, .L9
 116 0022 281C     		mov	r0, r5
 117 0024 9847     		blx	r3
 118              	.LVL10:
 139:Middlewares/USBMIDI/Src/usbd_midi.c ****   USBD_LL_PrepareReceive(pdev,MIDI_OUT_EP,(uint8_t*)(USB_Rx_Buffer),MIDI_DATA_OUT_PACKET_SIZE);
 119              		.loc 1 139 0
 120 0026 201C     		mov	r0, r4
 121 0028 0121     		mov	r1, #1
 122 002a 2A1C     		mov	r2, r5
 123 002c 4023     		mov	r3, #64
 124 002e FFF7FEFF 		bl	USBD_LL_PrepareReceive
 125              	.LVL11:
 141:Middlewares/USBMIDI/Src/usbd_midi.c **** }
 126              		.loc 1 141 0
 127 0032 0020     		mov	r0, #0
 128              		@ sp needed
 129              	.LVL12:
 130 0034 38BD     		pop	{r3, r4, r5, pc}
 131              	.L10:
 132 0036 C046     		.align	2
 133              	.L9:
 134 0038 00000000 		.word	USB_Rx_Buffer
 135              		.cfi_endproc
 136              	.LFE37:
 138              		.section	.text.USBD_MIDI_DeInit,"ax",%progbits
 139              		.align	2
 140              		.code	16
 141              		.thumb_func
 143              	USBD_MIDI_DeInit:
 144              	.LFB35:
 113:Middlewares/USBMIDI/Src/usbd_midi.c **** static uint8_t USBD_MIDI_DeInit (USBD_HandleTypeDef *pdev, uint8_t cfgidx){
 145              		.loc 1 113 0
 146              		.cfi_startproc
 147              	.LVL13:
 148 0000 10B5     		push	{r4, lr}
 149              	.LCFI1:
 150              		.cfi_def_cfa_offset 8
 151              		.cfi_offset 4, -8
 152              		.cfi_offset 14, -4
 153 0002 041C     		mov	r4, r0
 114:Middlewares/USBMIDI/Src/usbd_midi.c ****   pInstance = NULL;
 154              		.loc 1 114 0
 155 0004 0022     		mov	r2, #0
 156 0006 054B     		ldr	r3, .L12
 157 0008 1A60     		str	r2, [r3]
 115:Middlewares/USBMIDI/Src/usbd_midi.c ****   USBD_LL_CloseEP(pdev,MIDI_IN_EP);
 158              		.loc 1 115 0
ARM GAS  /tmp/ccfSjLQh.s 			page 7


 159 000a 8121     		mov	r1, #129
 160              	.LVL14:
 161 000c FFF7FEFF 		bl	USBD_LL_CloseEP
 162              	.LVL15:
 116:Middlewares/USBMIDI/Src/usbd_midi.c ****   USBD_LL_CloseEP(pdev,MIDI_OUT_EP);
 163              		.loc 1 116 0
 164 0010 201C     		mov	r0, r4
 165 0012 0121     		mov	r1, #1
 166 0014 FFF7FEFF 		bl	USBD_LL_CloseEP
 167              	.LVL16:
 118:Middlewares/USBMIDI/Src/usbd_midi.c **** }
 168              		.loc 1 118 0
 169 0018 0020     		mov	r0, #0
 170              		@ sp needed
 171              	.LVL17:
 172 001a 10BD     		pop	{r4, pc}
 173              	.L13:
 174              		.align	2
 175              	.L12:
 176 001c 00000000 		.word	.LANCHOR2
 177              		.cfi_endproc
 178              	.LFE35:
 180              		.section	.text.USBD_MIDI_Init,"ax",%progbits
 181              		.align	2
 182              		.code	16
 183              		.thumb_func
 185              	USBD_MIDI_Init:
 186              	.LFB34:
 105:Middlewares/USBMIDI/Src/usbd_midi.c **** static uint8_t USBD_MIDI_Init(USBD_HandleTypeDef *pdev, uint8_t cfgidx){
 187              		.loc 1 105 0
 188              		.cfi_startproc
 189              	.LVL18:
 190 0000 10B5     		push	{r4, lr}
 191              	.LCFI2:
 192              		.cfi_def_cfa_offset 8
 193              		.cfi_offset 4, -8
 194              		.cfi_offset 14, -4
 195 0002 041C     		mov	r4, r0
 106:Middlewares/USBMIDI/Src/usbd_midi.c ****   pInstance = pdev;
 196              		.loc 1 106 0
 197 0004 0A4B     		ldr	r3, .L15
 198 0006 1860     		str	r0, [r3]
 107:Middlewares/USBMIDI/Src/usbd_midi.c ****   USBD_LL_OpenEP(pdev,MIDI_IN_EP,USBD_EP_TYPE_BULK,MIDI_DATA_IN_PACKET_SIZE);
 199              		.loc 1 107 0
 200 0008 8121     		mov	r1, #129
 201              	.LVL19:
 202 000a 0222     		mov	r2, #2
 203 000c 4023     		mov	r3, #64
 204 000e FFF7FEFF 		bl	USBD_LL_OpenEP
 205              	.LVL20:
 108:Middlewares/USBMIDI/Src/usbd_midi.c ****   USBD_LL_OpenEP(pdev,MIDI_OUT_EP,USBD_EP_TYPE_BULK,MIDI_DATA_OUT_PACKET_SIZE);
 206              		.loc 1 108 0
 207 0012 201C     		mov	r0, r4
 208 0014 0121     		mov	r1, #1
 209 0016 0222     		mov	r2, #2
 210 0018 4023     		mov	r3, #64
 211 001a FFF7FEFF 		bl	USBD_LL_OpenEP
ARM GAS  /tmp/ccfSjLQh.s 			page 8


 212              	.LVL21:
 109:Middlewares/USBMIDI/Src/usbd_midi.c ****   USBD_LL_PrepareReceive(pdev,MIDI_OUT_EP,(uint8_t*)(USB_Rx_Buffer),MIDI_DATA_OUT_PACKET_SIZE);
 213              		.loc 1 109 0
 214 001e 201C     		mov	r0, r4
 215 0020 0121     		mov	r1, #1
 216 0022 044A     		ldr	r2, .L15+4
 217 0024 4023     		mov	r3, #64
 218 0026 FFF7FEFF 		bl	USBD_LL_PrepareReceive
 219              	.LVL22:
 111:Middlewares/USBMIDI/Src/usbd_midi.c **** }
 220              		.loc 1 111 0
 221 002a 0020     		mov	r0, #0
 222              		@ sp needed
 223              	.LVL23:
 224 002c 10BD     		pop	{r4, pc}
 225              	.L16:
 226 002e C046     		.align	2
 227              	.L15:
 228 0030 00000000 		.word	.LANCHOR2
 229 0034 00000000 		.word	USB_Rx_Buffer
 230              		.cfi_endproc
 231              	.LFE34:
 233              		.section	.text.USBD_MIDI_SendPacket,"ax",%progbits
 234              		.align	2
 235              		.global	USBD_MIDI_SendPacket
 236              		.code	16
 237              		.thumb_func
 239              	USBD_MIDI_SendPacket:
 240              	.LFB38:
 143:Middlewares/USBMIDI/Src/usbd_midi.c **** void USBD_MIDI_SendPacket (){
 241              		.loc 1 143 0
 242              		.cfi_startproc
 243 0000 10B5     		push	{r4, lr}
 244              	.LCFI3:
 245              		.cfi_def_cfa_offset 8
 246              		.cfi_offset 4, -8
 247              		.cfi_offset 14, -4
 147:Middlewares/USBMIDI/Src/usbd_midi.c ****   if(USB_Tx_State != 1){
 248              		.loc 1 147 0
 249 0002 214B     		ldr	r3, .L25
 250 0004 1B78     		ldrb	r3, [r3]
 251 0006 012B     		cmp	r3, #1
 252 0008 3CD0     		beq	.L17
 148:Middlewares/USBMIDI/Src/usbd_midi.c ****     if (APP_Rx_ptr_out == APP_RX_DATA_SIZE){
 253              		.loc 1 148 0
 254 000a 204B     		ldr	r3, .L25+4
 255 000c 1A68     		ldr	r2, [r3]
 256 000e 8023     		mov	r3, #128
 257 0010 5B00     		lsl	r3, r3, #1
 258 0012 9A42     		cmp	r2, r3
 259 0014 02D1     		bne	.L19
 149:Middlewares/USBMIDI/Src/usbd_midi.c ****       APP_Rx_ptr_out = 0;
 260              		.loc 1 149 0
 261 0016 0022     		mov	r2, #0
 262 0018 1C4B     		ldr	r3, .L25+4
 263 001a 1A60     		str	r2, [r3]
 264              	.L19:
ARM GAS  /tmp/ccfSjLQh.s 			page 9


 152:Middlewares/USBMIDI/Src/usbd_midi.c ****     if(APP_Rx_ptr_out == APP_Rx_ptr_in){
 265              		.loc 1 152 0
 266 001c 1B4B     		ldr	r3, .L25+4
 267 001e 1968     		ldr	r1, [r3]
 268 0020 1B4B     		ldr	r3, .L25+8
 269 0022 1B68     		ldr	r3, [r3]
 270 0024 9942     		cmp	r1, r3
 271 0026 03D1     		bne	.L20
 153:Middlewares/USBMIDI/Src/usbd_midi.c ****       USB_Tx_State = 0;
 272              		.loc 1 153 0
 273 0028 0022     		mov	r2, #0
 274 002a 174B     		ldr	r3, .L25
 275 002c 1A70     		strb	r2, [r3]
 154:Middlewares/USBMIDI/Src/usbd_midi.c ****       return;
 276              		.loc 1 154 0
 277 002e 29E0     		b	.L17
 278              	.L20:
 157:Middlewares/USBMIDI/Src/usbd_midi.c ****     if(APP_Rx_ptr_out > APP_Rx_ptr_in){
 279              		.loc 1 157 0
 280 0030 9942     		cmp	r1, r3
 281 0032 05D9     		bls	.L21
 158:Middlewares/USBMIDI/Src/usbd_midi.c ****       APP_Rx_length = APP_RX_DATA_SIZE - APP_Rx_ptr_out;
 282              		.loc 1 158 0
 283 0034 8022     		mov	r2, #128
 284 0036 5200     		lsl	r2, r2, #1
 285 0038 521A     		sub	r2, r2, r1
 286 003a 164B     		ldr	r3, .L25+12
 287 003c 1A60     		str	r2, [r3]
 288 003e 02E0     		b	.L22
 289              	.L21:
 160:Middlewares/USBMIDI/Src/usbd_midi.c ****       APP_Rx_length = APP_Rx_ptr_in - APP_Rx_ptr_out;
 290              		.loc 1 160 0
 291 0040 5B1A     		sub	r3, r3, r1
 292 0042 144A     		ldr	r2, .L25+12
 293 0044 1360     		str	r3, [r2]
 294              	.L22:
 163:Middlewares/USBMIDI/Src/usbd_midi.c ****     if (APP_Rx_length > MIDI_DATA_IN_PACKET_SIZE){
 295              		.loc 1 163 0
 296 0046 134B     		ldr	r3, .L25+12
 297 0048 1868     		ldr	r0, [r3]
 298 004a 4028     		cmp	r0, #64
 299 004c 08D9     		bls	.L23
 164:Middlewares/USBMIDI/Src/usbd_midi.c ****       USB_Tx_ptr = APP_Rx_ptr_out;
 300              		.loc 1 164 0
 301 004e 8CB2     		uxth	r4, r1
 302              	.LVL24:
 166:Middlewares/USBMIDI/Src/usbd_midi.c ****       APP_Rx_ptr_out += MIDI_DATA_IN_PACKET_SIZE;
 303              		.loc 1 166 0
 304 0050 4031     		add	r1, r1, #64
 305              	.LVL25:
 306 0052 0E4B     		ldr	r3, .L25+4
 307 0054 1960     		str	r1, [r3]
 167:Middlewares/USBMIDI/Src/usbd_midi.c ****       APP_Rx_length -= MIDI_DATA_IN_PACKET_SIZE;
 308              		.loc 1 167 0
 309 0056 4038     		sub	r0, r0, #64
 310 0058 0E4B     		ldr	r3, .L25+12
 311 005a 1860     		str	r0, [r3]
ARM GAS  /tmp/ccfSjLQh.s 			page 10


 165:Middlewares/USBMIDI/Src/usbd_midi.c ****       USB_Tx_length = MIDI_DATA_IN_PACKET_SIZE;
 312              		.loc 1 165 0
 313 005c 4023     		mov	r3, #64
 314 005e 07E0     		b	.L24
 315              	.LVL26:
 316              	.L23:
 169:Middlewares/USBMIDI/Src/usbd_midi.c ****       USB_Tx_ptr = APP_Rx_ptr_out;
 317              		.loc 1 169 0
 318 0060 8CB2     		uxth	r4, r1
 319              	.LVL27:
 170:Middlewares/USBMIDI/Src/usbd_midi.c ****       USB_Tx_length = APP_Rx_length;
 320              		.loc 1 170 0
 321 0062 83B2     		uxth	r3, r0
 322              	.LVL28:
 171:Middlewares/USBMIDI/Src/usbd_midi.c ****       APP_Rx_ptr_out += APP_Rx_length;
 323              		.loc 1 171 0
 324 0064 0918     		add	r1, r1, r0
 325              	.LVL29:
 326 0066 094A     		ldr	r2, .L25+4
 327 0068 1160     		str	r1, [r2]
 172:Middlewares/USBMIDI/Src/usbd_midi.c ****       APP_Rx_length = 0;
 328              		.loc 1 172 0
 329 006a 0021     		mov	r1, #0
 330 006c 094A     		ldr	r2, .L25+12
 331 006e 1160     		str	r1, [r2]
 332              	.LVL30:
 333              	.L24:
 174:Middlewares/USBMIDI/Src/usbd_midi.c ****     USB_Tx_State = 1;
 334              		.loc 1 174 0
 335 0070 0120     		mov	r0, #1
 336 0072 0549     		ldr	r1, .L25
 337 0074 0870     		strb	r0, [r1]
 175:Middlewares/USBMIDI/Src/usbd_midi.c ****     USBD_LL_Transmit (pInstance, MIDI_IN_EP,(uint8_t*)&APP_Rx_Buffer[USB_Tx_ptr],USB_Tx_length);
 338              		.loc 1 175 0
 339 0076 0849     		ldr	r1, .L25+16
 340 0078 0868     		ldr	r0, [r1]
 341 007a 084A     		ldr	r2, .L25+20
 342 007c A218     		add	r2, r4, r2
 343 007e 8121     		mov	r1, #129
 344 0080 FFF7FEFF 		bl	USBD_LL_Transmit
 345              	.LVL31:
 346              	.L17:
 177:Middlewares/USBMIDI/Src/usbd_midi.c **** }
 347              		.loc 1 177 0
 348              		@ sp needed
 349 0084 10BD     		pop	{r4, pc}
 350              	.L26:
 351 0086 C046     		.align	2
 352              	.L25:
 353 0088 00000000 		.word	.LANCHOR0
 354 008c 00000000 		.word	.LANCHOR3
 355 0090 00000000 		.word	.LANCHOR4
 356 0094 00000000 		.word	.LANCHOR5
 357 0098 00000000 		.word	.LANCHOR2
 358 009c 00000000 		.word	APP_Rx_Buffer
 359              		.cfi_endproc
 360              	.LFE38:
ARM GAS  /tmp/ccfSjLQh.s 			page 11


 362              		.section	.text.USBD_MIDI_RegisterInterface,"ax",%progbits
 363              		.align	2
 364              		.global	USBD_MIDI_RegisterInterface
 365              		.code	16
 366              		.thumb_func
 368              	USBD_MIDI_RegisterInterface:
 369              	.LFB40:
 183:Middlewares/USBMIDI/Src/usbd_midi.c **** 
 184:Middlewares/USBMIDI/Src/usbd_midi.c **** //uint8_t *USBD_MIDI_GetDeviceQualifierDescriptor (uint16_t *length){
 185:Middlewares/USBMIDI/Src/usbd_midi.c **** //  *length = sizeof (USBD_MIDI_DeviceQualifierDesc);
 186:Middlewares/USBMIDI/Src/usbd_midi.c **** //  return USBD_MIDI_DeviceQualifierDesc;
 187:Middlewares/USBMIDI/Src/usbd_midi.c **** //}
 188:Middlewares/USBMIDI/Src/usbd_midi.c **** 
 189:Middlewares/USBMIDI/Src/usbd_midi.c **** uint8_t USBD_MIDI_RegisterInterface(USBD_HandleTypeDef *pdev, USBD_MIDI_ItfTypeDef *fops)
 190:Middlewares/USBMIDI/Src/usbd_midi.c **** {
 370              		.loc 1 190 0
 371              		.cfi_startproc
 372              	.LVL32:
 191:Middlewares/USBMIDI/Src/usbd_midi.c ****   uint8_t ret = USBD_FAIL;
 192:Middlewares/USBMIDI/Src/usbd_midi.c ****   
 193:Middlewares/USBMIDI/Src/usbd_midi.c ****   if(fops != NULL){
 373              		.loc 1 193 0
 374 0000 0029     		cmp	r1, #0
 375 0002 04D0     		beq	.L29
 194:Middlewares/USBMIDI/Src/usbd_midi.c ****     pdev->pUserData= fops;
 376              		.loc 1 194 0
 377 0004 8723     		mov	r3, #135
 378 0006 9B00     		lsl	r3, r3, #2
 379 0008 C150     		str	r1, [r0, r3]
 380              	.LVL33:
 195:Middlewares/USBMIDI/Src/usbd_midi.c ****     ret = USBD_OK;    
 381              		.loc 1 195 0
 382 000a 0020     		mov	r0, #0
 383              	.LVL34:
 384 000c 00E0     		b	.L28
 385              	.LVL35:
 386              	.L29:
 191:Middlewares/USBMIDI/Src/usbd_midi.c ****   uint8_t ret = USBD_FAIL;
 387              		.loc 1 191 0
 388 000e 0220     		mov	r0, #2
 389              	.LVL36:
 390              	.L28:
 196:Middlewares/USBMIDI/Src/usbd_midi.c ****   }
 197:Middlewares/USBMIDI/Src/usbd_midi.c ****   
 198:Middlewares/USBMIDI/Src/usbd_midi.c ****   return ret;
 199:Middlewares/USBMIDI/Src/usbd_midi.c **** }
 391              		.loc 1 199 0
 392              		@ sp needed
 393 0010 7047     		bx	lr
 394              		.cfi_endproc
 395              	.LFE40:
 397              		.global	USBD_MIDI_CfgDesc
 398              		.global	USBD_MIDI
 399              		.comm	APP_Rx_Buffer,256,4
 400              		.comm	USB_Rx_Buffer,64,4
 401              		.global	USB_Tx_State
 402              		.global	APP_Rx_length
ARM GAS  /tmp/ccfSjLQh.s 			page 12


 403              		.global	APP_Rx_ptr_out
 404              		.global	APP_Rx_ptr_in
 405              		.global	pInstance
 406 0012 C046     		.section	.bss.APP_Rx_ptr_in,"aw",%nobits
 407              		.align	2
 408              		.set	.LANCHOR4,. + 0
 411              	APP_Rx_ptr_in:
 412 0000 00000000 		.space	4
 413              		.section	.bss.USB_Tx_State,"aw",%nobits
 414              		.set	.LANCHOR0,. + 0
 417              	USB_Tx_State:
 418 0000 00       		.space	1
 419              		.section	.data.USBD_MIDI_CfgDesc,"aw",%progbits
 420              		.align	2
 421              		.set	.LANCHOR1,. + 0
 424              	USBD_MIDI_CfgDesc:
 425 0000 09       		.byte	9
 426 0001 02       		.byte	2
 427 0002 85       		.byte	-123
 428 0003 00       		.byte	0
 429 0004 02       		.byte	2
 430 0005 01       		.byte	1
 431 0006 00       		.byte	0
 432 0007 80       		.byte	-128
 433 0008 0A       		.byte	10
 434 0009 09       		.byte	9
 435 000a 04       		.byte	4
 436 000b 00       		.byte	0
 437 000c 00       		.byte	0
 438 000d 00       		.byte	0
 439 000e 01       		.byte	1
 440 000f 01       		.byte	1
 441 0010 00       		.byte	0
 442 0011 00       		.byte	0
 443 0012 09       		.byte	9
 444 0013 24       		.byte	36
 445 0014 01       		.byte	1
 446 0015 00       		.byte	0
 447 0016 01       		.byte	1
 448 0017 09       		.byte	9
 449 0018 00       		.byte	0
 450 0019 01       		.byte	1
 451 001a 01       		.byte	1
 452 001b 09       		.byte	9
 453 001c 04       		.byte	4
 454 001d 01       		.byte	1
 455 001e 00       		.byte	0
 456 001f 02       		.byte	2
 457 0020 01       		.byte	1
 458 0021 03       		.byte	3
 459 0022 00       		.byte	0
 460 0023 00       		.byte	0
 461 0024 07       		.byte	7
 462 0025 24       		.byte	36
 463 0026 01       		.byte	1
 464 0027 00       		.byte	0
 465 0028 01       		.byte	1
ARM GAS  /tmp/ccfSjLQh.s 			page 13


 466 0029 43       		.byte	67
 467 002a 00       		.byte	0
 468 002b 06       		.byte	6
 469 002c 24       		.byte	36
 470 002d 02       		.byte	2
 471 002e 01       		.byte	1
 472 002f 01       		.byte	1
 473 0030 00       		.byte	0
 474 0031 06       		.byte	6
 475 0032 24       		.byte	36
 476 0033 02       		.byte	2
 477 0034 02       		.byte	2
 478 0035 02       		.byte	2
 479 0036 00       		.byte	0
 480 0037 06       		.byte	6
 481 0038 24       		.byte	36
 482 0039 02       		.byte	2
 483 003a 01       		.byte	1
 484 003b 11       		.byte	17
 485 003c 00       		.byte	0
 486 003d 06       		.byte	6
 487 003e 24       		.byte	36
 488 003f 02       		.byte	2
 489 0040 02       		.byte	2
 490 0041 12       		.byte	18
 491 0042 00       		.byte	0
 492 0043 09       		.byte	9
 493 0044 24       		.byte	36
 494 0045 03       		.byte	3
 495 0046 01       		.byte	1
 496 0047 03       		.byte	3
 497 0048 01       		.byte	1
 498 0049 02       		.byte	2
 499 004a 01       		.byte	1
 500 004b 00       		.byte	0
 501 004c 09       		.byte	9
 502 004d 24       		.byte	36
 503 004e 03       		.byte	3
 504 004f 02       		.byte	2
 505 0050 04       		.byte	4
 506 0051 01       		.byte	1
 507 0052 01       		.byte	1
 508 0053 01       		.byte	1
 509 0054 00       		.byte	0
 510 0055 09       		.byte	9
 511 0056 24       		.byte	36
 512 0057 03       		.byte	3
 513 0058 01       		.byte	1
 514 0059 13       		.byte	19
 515 005a 01       		.byte	1
 516 005b 12       		.byte	18
 517 005c 01       		.byte	1
 518 005d 00       		.byte	0
 519 005e 09       		.byte	9
 520 005f 24       		.byte	36
 521 0060 03       		.byte	3
 522 0061 02       		.byte	2
ARM GAS  /tmp/ccfSjLQh.s 			page 14


 523 0062 14       		.byte	20
 524 0063 01       		.byte	1
 525 0064 11       		.byte	17
 526 0065 01       		.byte	1
 527 0066 00       		.byte	0
 528 0067 09       		.byte	9
 529 0068 05       		.byte	5
 530 0069 01       		.byte	1
 531 006a 02       		.byte	2
 532 006b 40       		.byte	64
 533 006c 00       		.byte	0
 534 006d 00       		.byte	0
 535 006e 00       		.byte	0
 536 006f 00       		.byte	0
 537 0070 06       		.byte	6
 538 0071 25       		.byte	37
 539 0072 01       		.byte	1
 540 0073 02       		.byte	2
 541 0074 01       		.byte	1
 542 0075 11       		.byte	17
 543 0076 09       		.byte	9
 544 0077 05       		.byte	5
 545 0078 81       		.byte	-127
 546 0079 02       		.byte	2
 547 007a 40       		.byte	64
 548 007b 00       		.byte	0
 549 007c 00       		.byte	0
 550 007d 00       		.byte	0
 551 007e 00       		.byte	0
 552 007f 06       		.byte	6
 553 0080 25       		.byte	37
 554 0081 01       		.byte	1
 555 0082 02       		.byte	2
 556 0083 03       		.byte	3
 557 0084 13       		.byte	19
 558 0085 000000   		.section	.bss.APP_Rx_ptr_out,"aw",%nobits
 559              		.align	2
 560              		.set	.LANCHOR3,. + 0
 563              	APP_Rx_ptr_out:
 564 0000 00000000 		.space	4
 565              		.section	.data.USBD_MIDI,"aw",%progbits
 566              		.align	2
 569              	USBD_MIDI:
 570 0000 00000000 		.word	USBD_MIDI_Init
 571 0004 00000000 		.word	USBD_MIDI_DeInit
 572 0008 00000000 		.word	0
 573 000c 00000000 		.word	0
 574 0010 00000000 		.word	0
 575 0014 00000000 		.word	USBD_MIDI_DataIn
 576 0018 00000000 		.word	USBD_MIDI_DataOut
 577 001c 00000000 		.word	0
 578 0020 00000000 		.word	0
 579 0024 00000000 		.word	0
 580 0028 00000000 		.word	0
 581 002c 00000000 		.word	USBD_MIDI_GetCfgDesc
 582 0030 00000000 		.word	0
 583 0034 00000000 		.word	0
ARM GAS  /tmp/ccfSjLQh.s 			page 15


 584              		.section	.bss.APP_Rx_length,"aw",%nobits
 585              		.align	2
 586              		.set	.LANCHOR5,. + 0
 589              	APP_Rx_length:
 590 0000 00000000 		.space	4
 591              		.section	.bss.pInstance,"aw",%nobits
 592              		.align	2
 593              		.set	.LANCHOR2,. + 0
 596              	pInstance:
 597 0000 00000000 		.space	4
 598              		.text
 599              	.Letext0:
 600              		.file 2 "/home/niklas/Downloads/gcc-arm-none-eabi-4_8-2014q3/arm-none-eabi/include/machine/_defaul
 601              		.file 3 "/home/niklas/Downloads/gcc-arm-none-eabi-4_8-2014q3/arm-none-eabi/include/stdint.h"
 602              		.file 4 "Drivers/CMSIS/Device/ST/STM32F0xx/Include/stm32f072xb.h"
 603              		.file 5 "Drivers/STM32F0xx_HAL_Driver/Inc/stm32f0xx_hal_def.h"
 604              		.file 6 "Drivers/STM32F0xx_HAL_Driver/Inc/stm32f0xx_hal_pcd.h"
 605              		.file 7 "Middlewares/ST/STM32_USB_Device_Library/Core/Inc/usbd_def.h"
 606              		.file 8 "Middlewares/USBMIDI/Inc/usbd_midi.h"
 607              		.file 9 "Middlewares/ST/STM32_USB_Device_Library/Core/Inc/usbd_core.h"
ARM GAS  /tmp/ccfSjLQh.s 			page 16


DEFINED SYMBOLS
                            *ABS*:00000000 usbd_midi.c
     /tmp/ccfSjLQh.s:18     .text.USBD_MIDI_DataIn:00000000 $t
     /tmp/ccfSjLQh.s:22     .text.USBD_MIDI_DataIn:00000000 USBD_MIDI_DataIn
     /tmp/ccfSjLQh.s:46     .text.USBD_MIDI_DataIn:00000014 $d
     /tmp/ccfSjLQh.s:51     .text.USBD_MIDI_GetCfgDesc:00000000 $t
     /tmp/ccfSjLQh.s:55     .text.USBD_MIDI_GetCfgDesc:00000000 USBD_MIDI_GetCfgDesc
     /tmp/ccfSjLQh.s:71     .text.USBD_MIDI_GetCfgDesc:00000008 $d
     /tmp/ccfSjLQh.s:76     .text.USBD_MIDI_DataOut:00000000 $t
     /tmp/ccfSjLQh.s:80     .text.USBD_MIDI_DataOut:00000000 USBD_MIDI_DataOut
     /tmp/ccfSjLQh.s:134    .text.USBD_MIDI_DataOut:00000038 $d
                            *COM*:00000040 USB_Rx_Buffer
     /tmp/ccfSjLQh.s:139    .text.USBD_MIDI_DeInit:00000000 $t
     /tmp/ccfSjLQh.s:143    .text.USBD_MIDI_DeInit:00000000 USBD_MIDI_DeInit
     /tmp/ccfSjLQh.s:176    .text.USBD_MIDI_DeInit:0000001c $d
     /tmp/ccfSjLQh.s:181    .text.USBD_MIDI_Init:00000000 $t
     /tmp/ccfSjLQh.s:185    .text.USBD_MIDI_Init:00000000 USBD_MIDI_Init
     /tmp/ccfSjLQh.s:228    .text.USBD_MIDI_Init:00000030 $d
     /tmp/ccfSjLQh.s:234    .text.USBD_MIDI_SendPacket:00000000 $t
     /tmp/ccfSjLQh.s:239    .text.USBD_MIDI_SendPacket:00000000 USBD_MIDI_SendPacket
     /tmp/ccfSjLQh.s:353    .text.USBD_MIDI_SendPacket:00000088 $d
                            *COM*:00000100 APP_Rx_Buffer
     /tmp/ccfSjLQh.s:363    .text.USBD_MIDI_RegisterInterface:00000000 $t
     /tmp/ccfSjLQh.s:368    .text.USBD_MIDI_RegisterInterface:00000000 USBD_MIDI_RegisterInterface
     /tmp/ccfSjLQh.s:424    .data.USBD_MIDI_CfgDesc:00000000 USBD_MIDI_CfgDesc
     /tmp/ccfSjLQh.s:569    .data.USBD_MIDI:00000000 USBD_MIDI
     /tmp/ccfSjLQh.s:417    .bss.USB_Tx_State:00000000 USB_Tx_State
     /tmp/ccfSjLQh.s:589    .bss.APP_Rx_length:00000000 APP_Rx_length
     /tmp/ccfSjLQh.s:563    .bss.APP_Rx_ptr_out:00000000 APP_Rx_ptr_out
     /tmp/ccfSjLQh.s:411    .bss.APP_Rx_ptr_in:00000000 APP_Rx_ptr_in
     /tmp/ccfSjLQh.s:596    .bss.pInstance:00000000 pInstance
     /tmp/ccfSjLQh.s:407    .bss.APP_Rx_ptr_in:00000000 $d
     /tmp/ccfSjLQh.s:418    .bss.USB_Tx_State:00000000 $d
     /tmp/ccfSjLQh.s:420    .data.USBD_MIDI_CfgDesc:00000000 $d
     /tmp/ccfSjLQh.s:559    .bss.APP_Rx_ptr_out:00000000 $d
     /tmp/ccfSjLQh.s:566    .data.USBD_MIDI:00000000 $d
     /tmp/ccfSjLQh.s:585    .bss.APP_Rx_length:00000000 $d
     /tmp/ccfSjLQh.s:592    .bss.pInstance:00000000 $d
                     .debug_frame:00000010 $d

UNDEFINED SYMBOLS
USBD_LL_PrepareReceive
USBD_LL_CloseEP
USBD_LL_OpenEP
USBD_LL_Transmit
